Archive member included because of file (symbol)

contiki-cc2538dk.a(er-coap-13.o)
                              obj_cc2538dk/block-transfer.o (coap_get_mid)
contiki-cc2538dk.a(er-coap-13-engi)
                              obj_cc2538dk/block-transfer.o (coap_blocking_request_callback)
contiki-cc2538dk.a(er-coap-13-tran)
                              contiki-cc2538dk.a(er-coap-13-engi) (coap_register_as_transaction_handler)
contiki-cc2538dk.a(er-coap-13-obse)
                              contiki-cc2538dk.a(er-coap-13-engi) (coap_notify_observers)
contiki-cc2538dk.a(er-coap-13-udp.)
                              contiki-cc2538dk.a(er-coap-13-engi) (coap_handle_receive)
contiki-cc2538dk.a(erbium.o)  contiki-cc2538dk.a(er-coap-13-engi) (rest_get_resources)
contiki-cc2538dk.a(contiki-main.o)
                              obj_cc2538dk/startup-gcc.o (main)
contiki-cc2538dk.a(sensors.o)
                              contiki-cc2538dk.a(contiki-main.o) (sensors_process)
contiki-cc2538dk.a(smartrf-sensors)
                              contiki-cc2538dk.a(sensors.o) (sensors)
contiki-cc2538dk.a(button-sensor.o)
                              contiki-cc2538dk.a(contiki-main.o) (button_sensor_init)
contiki-cc2538dk.a(adc-sensor.o)
                              contiki-cc2538dk.a(smartrf-sensors) (adc_sensor)
contiki-cc2538dk.a(clock.o)   contiki-cc2538dk.a(contiki-main.o) (clock_init)
contiki-cc2538dk.a(rtimer-arch.o)
                              contiki-cc2538dk.a(clock.o) (rtimer_arch_now)
contiki-cc2538dk.a(uart.o)    contiki-cc2538dk.a(contiki-main.o) (uart_set_input)
contiki-cc2538dk.a(watchdog.o)
                              contiki-cc2538dk.a(contiki-main.o) (watchdog_init)
contiki-cc2538dk.a(nvic.o)    contiki-cc2538dk.a(contiki-main.o) (nvic_init)
contiki-cc2538dk.a(cpu.o)     contiki-cc2538dk.a(contiki-main.o) (cpu_cpsie)
contiki-cc2538dk.a(sys-ctrl.o)
                              contiki-cc2538dk.a(contiki-main.o) (sys_ctrl_init)
contiki-cc2538dk.a(gpio.o)    contiki-cc2538dk.a(button-sensor.o) (gpio_register_callback)
contiki-cc2538dk.a(ioc.o)     contiki-cc2538dk.a(contiki-main.o) (ioc_init)
contiki-cc2538dk.a(spi.o)     obj_cc2538dk/enc28j60-arch-spi.o (spi_set_mode)
contiki-cc2538dk.a(adc.o)     contiki-cc2538dk.a(adc-sensor.o) (adc_init)
contiki-cc2538dk.a(cc2538-rf.o)
                              contiki-cc2538dk.a(contiki-main.o) (cc2538_rf_set_addr)
contiki-cc2538dk.a(udma.o)    contiki-cc2538dk.a(cc2538-rf.o) (udma_set_channel_src)
contiki-cc2538dk.a(lpm.o)     contiki-cc2538dk.a(uart.o) (lpm_register_peripheral)
contiki-cc2538dk.a(dbg.o)     cetic-6lbr.co (putchar)
contiki-cc2538dk.a(ieee-addr.o)
                              contiki-cc2538dk.a(contiki-main.o) (ieee_addr_cpy_to)
contiki-cc2538dk.a(dbg-printf.o)
                              cetic-6lbr.co (printf)
contiki-cc2538dk.a(dbg-snprintf.o)
                              obj_cc2538dk/webserver.o (vsnprintf)
contiki-cc2538dk.a(dbg-sprintf.o)
                              obj_cc2538dk/udp-server.o (sprintf)
contiki-cc2538dk.a(strformat.o)
                              contiki-cc2538dk.a(dbg-printf.o) (format_str_v)
contiki-cc2538dk.a(autostart.o)
                              contiki-cc2538dk.a(contiki-main.o) (autostart_start)
contiki-cc2538dk.a(ctimer.o)  contiki-cc2538dk.a(contiki-main.o) (ctimer_init)
contiki-cc2538dk.a(energest.o)
                              contiki-cc2538dk.a(contiki-main.o) (energest_init)
contiki-cc2538dk.a(etimer.o)  obj_cc2538dk/udp-client.o (etimer_expired)
contiki-cc2538dk.a(process.o)
                              cetic-6lbr.co (process_alloc_event)
contiki-cc2538dk.a(rtimer.o)  contiki-cc2538dk.a(rtimer-arch.o) (rtimer_run_next)
contiki-cc2538dk.a(stimer.o)  obj_cc2538dk/webserver.o (stimer_remaining)
contiki-cc2538dk.a(timer.o)   contiki-cc2538dk.a(etimer.o) (timer_reset)
contiki-cc2538dk.a(serial-line.o)
                              contiki-cc2538dk.a(contiki-main.o) (serial_line_init)
contiki-cc2538dk.a(list.o)    contiki-cc2538dk.a(erbium.o) (list_init)
contiki-cc2538dk.a(memb.o)    obj_cc2538dk/httpd-simple.o (memb_alloc)
contiki-cc2538dk.a(random.o)  contiki-cc2538dk.a(er-coap-13.o) (random_rand)
contiki-cc2538dk.a(ringbuf.o)
                              contiki-cc2538dk.a(serial-line.o) (ringbuf_init)
contiki-cc2538dk.a(linkaddr.o)
                              obj_cc2538dk/packet-filter.o (linkaddr_cmp)
contiki-cc2538dk.a(nbr-table.o)
                              obj_cc2538dk/webserver.o (nbr_table_next)
contiki-cc2538dk.a(netstack.o)
                              contiki-cc2538dk.a(contiki-main.o) (netstack_init)
contiki-cc2538dk.a(packetbuf.o)
                              contiki-cc2538dk.a(cc2538-rf.o) (packetbuf_set_datalen)
contiki-cc2538dk.a(queuebuf.o)
                              contiki-cc2538dk.a(contiki-main.o) (queuebuf_init)
contiki-cc2538dk.a(sicslowpan.o)
                              contiki-cc2538dk.a(contiki-main.o) (sicslowpan_driver)
contiki-cc2538dk.a(uip6.o)    obj_cc2538dk/httpd-simple.o (uip_conn)
contiki-cc2538dk.a(uip-ds6.o)
                              cetic-6lbr.co (uip_ds6_get_link_local)
contiki-cc2538dk.a(uip-ds6-nbr.o)
                              contiki-cc2538dk.a(sicslowpan.o) (uip_ds6_link_neighbor_callback)
contiki-cc2538dk.a(uip-ds6-route.o)
                              obj_cc2538dk/webserver.o (uip_ds6_defrt_list_head)
contiki-cc2538dk.a(uip-icmp6.o)
                              contiki-cc2538dk.a(uip6.o) (uip_icmp6_input)
contiki-cc2538dk.a(uip-nd6.o)
                              contiki-cc2538dk.a(uip6.o) (uip_nd6_init)
contiki-cc2538dk.a(csma.o)    obj_cc2538dk/webserver.o (csma_driver)
contiki-cc2538dk.a(framer-802154.o)
                              contiki-cc2538dk.a(sicslowpan.o) (framer_802154)
contiki-cc2538dk.a(mac.o)     contiki-cc2538dk.a(csma.o) (mac_call_sent_callback)
contiki-cc2538dk.a(psock.o)   obj_cc2538dk/httpd-simple.o (psock_datalen)
contiki-cc2538dk.a(tcpip.o)   obj_cc2538dk/packet-filter.o (tcpip_set_outputfunc)
contiki-cc2538dk.a(uip-debug.o)
                              cetic-6lbr.co (uip_debug_ipaddr_print)
contiki-cc2538dk.a(uiplib.o)  obj_cc2538dk/webserver.o (uiplib_ip6addrconv)
contiki-cc2538dk.a(uip-udp-packet.)
                              obj_cc2538dk/udp-server.o (uip_udp_packet_send)
contiki-cc2538dk.a(rpl.o)     contiki-cc2538dk.a(tcpip.o) (rpl_init)
contiki-cc2538dk.a(rpl-dag.o)
                              contiki-cc2538dk.a(rpl.o) (default_instance)
contiki-cc2538dk.a(rpl-ext-header.)
                              contiki-cc2538dk.a(uip-icmp6.o) (rpl_invert_header)
contiki-cc2538dk.a(rpl-icmp6.o)
                              contiki-cc2538dk.a(rpl.o) (rpl_icmp6_register_handlers)
contiki-cc2538dk.a(rpl-mrhof.o)
                              contiki-cc2538dk.a(rpl.o) (rpl_mrhof)
contiki-cc2538dk.a(rpl-timers.o)
                              contiki-cc2538dk.a(rpl.o) (rpl_cancel_dao)
contiki-cc2538dk.a(contikimac.o)
                              obj_cc2538dk/webserver.o (contikimac_driver)
contiki-cc2538dk.a(leds.o)    contiki-cc2538dk.a(contiki-main.o) (leds_off)
contiki-cc2538dk.a(leds-arch.o)
                              contiki-cc2538dk.a(leds.o) (leds_arch_init)
contiki-cc2538dk.a(frame802154.o)
                              contiki-cc2538dk.a(framer-802154.o) (frame802154_parse)
contiki-cc2538dk.a(mac-sequence.o)
                              contiki-cc2538dk.a(contikimac.o) (mac_sequence_is_duplicate)
/home/user/CodeSourcery/Sourcery_G++_Lite/bin/../lib/gcc/arm-none-eabi/4.3.2/thumb2/libgcc.a(_aeabi_uldivmod.o)
                              contiki-cc2538dk.a(strformat.o) (__aeabi_uldivmod)
/home/user/CodeSourcery/Sourcery_G++_Lite/bin/../lib/gcc/arm-none-eabi/4.3.2/thumb2/libgcc.a(bpabi.o)
                              /home/user/CodeSourcery/Sourcery_G++_Lite/bin/../lib/gcc/arm-none-eabi/4.3.2/thumb2/libgcc.a(_aeabi_uldivmod.o) (__gnu_uldivmod_helper)
/home/user/CodeSourcery/Sourcery_G++_Lite/bin/../lib/gcc/arm-none-eabi/4.3.2/thumb2/libgcc.a(_dvmd_tls.o)
                              /home/user/CodeSourcery/Sourcery_G++_Lite/bin/../lib/gcc/arm-none-eabi/4.3.2/thumb2/libgcc.a(_aeabi_uldivmod.o) (__aeabi_ldiv0)
/home/user/CodeSourcery/Sourcery_G++_Lite/bin/../lib/gcc/arm-none-eabi/4.3.2/thumb2/libgcc.a(_divdi3.o)
                              /home/user/CodeSourcery/Sourcery_G++_Lite/bin/../lib/gcc/arm-none-eabi/4.3.2/thumb2/libgcc.a(bpabi.o) (__divdi3)
/home/user/CodeSourcery/Sourcery_G++_Lite/bin/../lib/gcc/arm-none-eabi/4.3.2/thumb2/libgcc.a(_udivdi3.o)
                              /home/user/CodeSourcery/Sourcery_G++_Lite/bin/../lib/gcc/arm-none-eabi/4.3.2/thumb2/libgcc.a(bpabi.o) (__udivdi3)
/home/user/CodeSourcery/Sourcery_G++_Lite/bin/../lib/gcc/arm-none-eabi/4.3.2/thumb2/libgcc.a(_udivsi3.o)
                              /home/user/CodeSourcery/Sourcery_G++_Lite/bin/../lib/gcc/arm-none-eabi/4.3.2/thumb2/libgcc.a(_divdi3.o) (__aeabi_uidiv)
/home/user/CodeSourcery/Sourcery_G++_Lite/bin/../lib/gcc/arm-none-eabi/4.3.2/thumb2/libgcc.a(_clz.o)
                              /home/user/CodeSourcery/Sourcery_G++_Lite/bin/../lib/gcc/arm-none-eabi/4.3.2/thumb2/libgcc.a(_divdi3.o) (__clz_tab)
/home/user/CodeSourcery/Sourcery_G++_Lite/bin/../lib/gcc/arm-none-eabi/4.3.2/../../../../arm-none-eabi/lib/thumb2/libc.a(lib_a-atoi.o)
                              obj_cc2538dk/webserver.o (atoi)
/home/user/CodeSourcery/Sourcery_G++_Lite/bin/../lib/gcc/arm-none-eabi/4.3.2/../../../../arm-none-eabi/lib/thumb2/libc.a(lib_a-index.o)
                              obj_cc2538dk/webserver.o (index)
/home/user/CodeSourcery/Sourcery_G++_Lite/bin/../lib/gcc/arm-none-eabi/4.3.2/../../../../arm-none-eabi/lib/thumb2/libc.a(lib_a-lcltime_r.o)
                              obj_cc2538dk/log-6lbr.o (localtime_r)
/home/user/CodeSourcery/Sourcery_G++_Lite/bin/../lib/gcc/arm-none-eabi/4.3.2/../../../../arm-none-eabi/lib/thumb2/libc.a(lib_a-memchr.o)
                              contiki-cc2538dk.a(er-coap-13.o) (memchr)
/home/user/CodeSourcery/Sourcery_G++_Lite/bin/../lib/gcc/arm-none-eabi/4.3.2/../../../../arm-none-eabi/lib/thumb2/libc.a(lib_a-memcmp.o)
                              obj_cc2538dk/webserver.o (memcmp)
/home/user/CodeSourcery/Sourcery_G++_Lite/bin/../lib/gcc/arm-none-eabi/4.3.2/../../../../arm-none-eabi/lib/thumb2/libc.a(lib_a-memcpy.o)
                              cetic-6lbr.co (memcpy)
/home/user/CodeSourcery/Sourcery_G++_Lite/bin/../lib/gcc/arm-none-eabi/4.3.2/../../../../arm-none-eabi/lib/thumb2/libc.a(lib_a-memmove.o)
                              contiki-cc2538dk.a(er-coap-13.o) (memmove)
/home/user/CodeSourcery/Sourcery_G++_Lite/bin/../lib/gcc/arm-none-eabi/4.3.2/../../../../arm-none-eabi/lib/thumb2/libc.a(lib_a-memset.o)
                              obj_cc2538dk/udp-server.o (memset)
/home/user/CodeSourcery/Sourcery_G++_Lite/bin/../lib/gcc/arm-none-eabi/4.3.2/../../../../arm-none-eabi/lib/thumb2/libc.a(lib_a-mktm_r.o)
                              /home/user/CodeSourcery/Sourcery_G++_Lite/bin/../lib/gcc/arm-none-eabi/4.3.2/../../../../arm-none-eabi/lib/thumb2/libc.a(lib_a-lcltime_r.o) (_mktm_r)
/home/user/CodeSourcery/Sourcery_G++_Lite/bin/../lib/gcc/arm-none-eabi/4.3.2/../../../../arm-none-eabi/lib/thumb2/libc.a(lib_a-strchr.o)
                              contiki-cc2538dk.a(er-coap-13.o) (strchr)
/home/user/CodeSourcery/Sourcery_G++_Lite/bin/../lib/gcc/arm-none-eabi/4.3.2/../../../../arm-none-eabi/lib/thumb2/libc.a(lib_a-strcmp.o)
                              obj_cc2538dk/webserver.o (strcmp)
/home/user/CodeSourcery/Sourcery_G++_Lite/bin/../lib/gcc/arm-none-eabi/4.3.2/../../../../arm-none-eabi/lib/thumb2/libc.a(lib_a-strcpy.o)
                              obj_cc2538dk/udp-client.o (strcpy)
/home/user/CodeSourcery/Sourcery_G++_Lite/bin/../lib/gcc/arm-none-eabi/4.3.2/../../../../arm-none-eabi/lib/thumb2/libc.a(lib_a-strlen.o)
                              obj_cc2538dk/webserver.o (strlen)
/home/user/CodeSourcery/Sourcery_G++_Lite/bin/../lib/gcc/arm-none-eabi/4.3.2/../../../../arm-none-eabi/lib/thumb2/libc.a(lib_a-strncmp.o)
                              obj_cc2538dk/webserver.o (strncmp)
/home/user/CodeSourcery/Sourcery_G++_Lite/bin/../lib/gcc/arm-none-eabi/4.3.2/../../../../arm-none-eabi/lib/thumb2/libc.a(lib_a-strncpy.o)
                              obj_cc2538dk/httpd-simple.o (strncpy)
/home/user/CodeSourcery/Sourcery_G++_Lite/bin/../lib/gcc/arm-none-eabi/4.3.2/../../../../arm-none-eabi/lib/thumb2/libc.a(lib_a-strstr.o)
                              contiki-cc2538dk.a(er-coap-13-engi) (strstr)
/home/user/CodeSourcery/Sourcery_G++_Lite/bin/../lib/gcc/arm-none-eabi/4.3.2/../../../../arm-none-eabi/lib/thumb2/libc.a(lib_a-strtol.o)
                              /home/user/CodeSourcery/Sourcery_G++_Lite/bin/../lib/gcc/arm-none-eabi/4.3.2/../../../../arm-none-eabi/lib/thumb2/libc.a(lib_a-atoi.o) (_strtol_r)
/home/user/CodeSourcery/Sourcery_G++_Lite/bin/../lib/gcc/arm-none-eabi/4.3.2/../../../../arm-none-eabi/lib/thumb2/libc.a(lib_a-sysgettod.o)
                              obj_cc2538dk/log-6lbr.o (gettimeofday)
/home/user/CodeSourcery/Sourcery_G++_Lite/bin/../lib/gcc/arm-none-eabi/4.3.2/../../../../arm-none-eabi/lib/thumb2/libc.a(lib_a-tzlock.o)
                              /home/user/CodeSourcery/Sourcery_G++_Lite/bin/../lib/gcc/arm-none-eabi/4.3.2/../../../../arm-none-eabi/lib/thumb2/libc.a(lib_a-mktm_r.o) (__tz_lock)
/home/user/CodeSourcery/Sourcery_G++_Lite/bin/../lib/gcc/arm-none-eabi/4.3.2/../../../../arm-none-eabi/lib/thumb2/libc.a(lib_a-tzvars.o)
                              /home/user/CodeSourcery/Sourcery_G++_Lite/bin/../lib/gcc/arm-none-eabi/4.3.2/../../../../arm-none-eabi/lib/thumb2/libc.a(lib_a-mktm_r.o) (_daylight)
/home/user/CodeSourcery/Sourcery_G++_Lite/bin/../lib/gcc/arm-none-eabi/4.3.2/../../../../arm-none-eabi/lib/thumb2/libc.a(lib_a-ctype_.o)
                              /home/user/CodeSourcery/Sourcery_G++_Lite/bin/../lib/gcc/arm-none-eabi/4.3.2/../../../../arm-none-eabi/lib/thumb2/libc.a(lib_a-strtol.o) (__ctype_ptr__)
/home/user/CodeSourcery/Sourcery_G++_Lite/bin/../lib/gcc/arm-none-eabi/4.3.2/../../../../arm-none-eabi/lib/thumb2/libc.a(lib_a-gettimeofdayr.o)
                              /home/user/CodeSourcery/Sourcery_G++_Lite/bin/../lib/gcc/arm-none-eabi/4.3.2/../../../../arm-none-eabi/lib/thumb2/libc.a(lib_a-sysgettod.o) (_gettimeofday_r)
/home/user/CodeSourcery/Sourcery_G++_Lite/bin/../lib/gcc/arm-none-eabi/4.3.2/../../../../arm-none-eabi/lib/thumb2/libc.a(lib_a-gettzinfo.o)
                              /home/user/CodeSourcery/Sourcery_G++_Lite/bin/../lib/gcc/arm-none-eabi/4.3.2/../../../../arm-none-eabi/lib/thumb2/libc.a(lib_a-mktm_r.o) (__gettzinfo)
/home/user/CodeSourcery/Sourcery_G++_Lite/bin/../lib/gcc/arm-none-eabi/4.3.2/../../../../arm-none-eabi/lib/thumb2/libc.a(lib_a-impure.o)
                              /home/user/CodeSourcery/Sourcery_G++_Lite/bin/../lib/gcc/arm-none-eabi/4.3.2/../../../../arm-none-eabi/lib/thumb2/libc.a(lib_a-strtol.o) (_impure_ptr)
/home/user/CodeSourcery/Sourcery_G++_Lite/bin/../lib/gcc/arm-none-eabi/4.3.2/../../../../arm-none-eabi/lib/thumb2/libc.a(lib_a-reent.o)
                              /home/user/CodeSourcery/Sourcery_G++_Lite/bin/../lib/gcc/arm-none-eabi/4.3.2/../../../../arm-none-eabi/lib/thumb2/libc.a(lib_a-gettimeofdayr.o) (errno)
/home/user/CodeSourcery/Sourcery_G++_Lite/bin/../lib/gcc/arm-none-eabi/4.3.2/../../../../arm-none-eabi/lib/thumb2/libc.a(lib_a-freer.o)
                              /home/user/CodeSourcery/Sourcery_G++_Lite/bin/../lib/gcc/arm-none-eabi/4.3.2/../../../../arm-none-eabi/lib/thumb2/libc.a(lib_a-reent.o) (_free_r)
/home/user/CodeSourcery/Sourcery_G++_Lite/bin/../lib/gcc/arm-none-eabi/4.3.2/../../../../arm-none-eabi/lib/thumb2/libc.a(lib_a-mallocr.o)
                              /home/user/CodeSourcery/Sourcery_G++_Lite/bin/../lib/gcc/arm-none-eabi/4.3.2/../../../../arm-none-eabi/lib/thumb2/libc.a(lib_a-freer.o) (__malloc_av_)
/home/user/CodeSourcery/Sourcery_G++_Lite/bin/../lib/gcc/arm-none-eabi/4.3.2/../../../../arm-none-eabi/lib/thumb2/libc.a(lib_a-mlock.o)
                              /home/user/CodeSourcery/Sourcery_G++_Lite/bin/../lib/gcc/arm-none-eabi/4.3.2/../../../../arm-none-eabi/lib/thumb2/libc.a(lib_a-freer.o) (__malloc_lock)
/home/user/CodeSourcery/Sourcery_G++_Lite/bin/../lib/gcc/arm-none-eabi/4.3.2/../../../../arm-none-eabi/lib/thumb2/libc.a(lib_a-sbrkr.o)
                              /home/user/CodeSourcery/Sourcery_G++_Lite/bin/../lib/gcc/arm-none-eabi/4.3.2/../../../../arm-none-eabi/lib/thumb2/libc.a(lib_a-freer.o) (_sbrk_r)

Allocating common symbols
Common symbol       size              file

uip_ds6_timer_ra    0x8               contiki-cc2538dk.a(uip-ds6.o)
eth_mac_addr        0x6               cetic-6lbr.co
csma_noack          0x4               contiki-cc2538dk.a(csma.o)
uip_ds6_if          0x1d4             contiki-cc2538dk.a(uip-ds6.o)
uip_ds6_netif_addr_list_offset
                    0x1               contiki-cc2538dk.a(uip-ds6.o)
user_dest_addr      0x10              obj_cc2538dk/udp-client.o
uip_len             0x2               contiki-cc2538dk.a(uip6.o)
errno               0x4               /home/user/CodeSourcery/Sourcery_G++_Lite/bin/../lib/gcc/arm-none-eabi/4.3.2/../../../../arm-none-eabi/lib/thumb2/libc.a(lib_a-reent.o)
wsn_net_prefix      0x10              cetic-6lbr.co
uip_ds6_addr_size   0x1               contiki-cc2538dk.a(uip-ds6.o)
ll_header           0xe               obj_cc2538dk/enc28j60-drv.o
uip_sappdata        0x4               contiki-cc2538dk.a(uip6.o)
packetbuf_addrs     0x20              contiki-cc2538dk.a(packetbuf.o)
uip_acc32           0x4               contiki-cc2538dk.a(uip6.o)
node_info_table     0x1450            obj_cc2538dk/node-info.o
uip_ds6_prefix_list
                    0x60              contiki-cc2538dk.a(uip-ds6.o)
wsn_ip_local_addr   0x10              cetic-6lbr.co
frag_sender         0x8               contiki-cc2538dk.a(sicslowpan.o)
neighbor_overflow   0x4               contiki-cc2538dk.a(csma.o)
dest_addr           0x10              obj_cc2538dk/udp-client.o
uip_lladdr          0x8               contiki-cc2538dk.a(uip6.o)
uip_aligned_buf     0x500             contiki-cc2538dk.a(uip6.o)
uip_flags           0x1               contiki-cc2538dk.a(uip6.o)
prefixBuffer        0x60              obj_cc2538dk/sicslow-ethernet.o
packet_overflow     0x4               contiki-cc2538dk.a(csma.o)
csma_retransmissions
                    0x4               contiki-cc2538dk.a(csma.o)
raw_buf             0x80              obj_cc2538dk/sicslow-ethernet.o
uip_ds6_timer_periodic
                    0x10              contiki-cc2538dk.a(uip-ds6.o)
uip_next_hdr        0x4               contiki-cc2538dk.a(uip6.o)
wsn_ip_addr         0x10              cetic-6lbr.co
linkaddr_node_addr  0x8               contiki-cc2538dk.a(linkaddr.o)
default_instance    0x4               contiki-cc2538dk.a(rpl-dag.o)
eth_ip_addr         0x10              cetic-6lbr.co
csma_received_packets
                    0x4               contiki-cc2538dk.a(csma.o)
uip_udp_conn        0x4               contiki-cc2538dk.a(uip6.o)
packetbuf_attrs     0x30              contiki-cc2538dk.a(packetbuf.o)
wsn_mac_addr        0x8               cetic-6lbr.co
csma_dropped        0x4               contiki-cc2538dk.a(csma.o)
eth_net_prefix      0x10              cetic-6lbr.co
instance_table      0x10c             contiki-cc2538dk.a(rpl-dag.o)
uip_appdata         0x4               contiki-cc2538dk.a(uip6.o)
uip_conn            0x4               contiki-cc2538dk.a(uip6.o)
tcpip_event         0x1               contiki-cc2538dk.a(tcpip.o)
uip_conns           0x1e0             contiki-cc2538dk.a(uip6.o)
uip_icmp6_conns     0x8               contiki-cc2538dk.a(uip6.o)
wsn_net_prefix_len  0x1               cetic-6lbr.co
eth_mac64_addr      0x8               cetic-6lbr.co
uip_ds6_route_info_list
                    0x18              obj_cc2538dk/rio.o
nvm_data            0x80              obj_cc2538dk/nvm-config.o
cetic_6lbr_startup  0x4               cetic-6lbr.co
csma_deferred       0x4               contiki-cc2538dk.a(csma.o)
uip_listenports     0x10              contiki-cc2538dk.a(uip6.o)
eth_dft_router      0x10              cetic-6lbr.co
cetic_dag           0x4               cetic-6lbr.co
csma_collisions     0x4               contiki-cc2538dk.a(csma.o)
eth_ip_local_addr   0x10              cetic-6lbr.co
cetic_6lbr_restart_type
                    0x1               cetic-6lbr.co
sensors_flags       0x7               contiki-cc2538dk.a(smartrf-sensors)
serial_line_event_message
                    0x1               contiki-cc2538dk.a(serial-line.o)
sensors_event       0x1               contiki-cc2538dk.a(sensors.o)
tcpip_icmp6_event   0x1               contiki-cc2538dk.a(tcpip.o)
cetic_6lbr_restart_event
                    0x1               cetic-6lbr.co
csma_sent_packets   0x4               contiki-cc2538dk.a(csma.o)
uip_slen            0x2               contiki-cc2538dk.a(uip6.o)
uip_udp_conns       0x140             contiki-cc2538dk.a(uip6.o)

Discarded input sections

 .text          0x00000000        0x0 obj_cc2538dk/startup-gcc.o
 .data          0x00000000        0x0 obj_cc2538dk/startup-gcc.o
 .bss           0x00000000        0x0 obj_cc2538dk/startup-gcc.o
 .text          0x00000000        0x0 cetic-6lbr.co
 .data          0x00000000        0x0 cetic-6lbr.co
 .bss           0x00000000        0x0 cetic-6lbr.co
 .text.cetic_6lbr_set_prefix
                0x00000000        0x0 cetic-6lbr.co
 .text          0x00000000        0x0 obj_cc2538dk/webserver.o
 .data          0x00000000        0x0 obj_cc2538dk/webserver.o
 .bss           0x00000000        0x0 obj_cc2538dk/webserver.o
 .text          0x00000000        0x0 obj_cc2538dk/httpd-simple.o
 .data          0x00000000        0x0 obj_cc2538dk/httpd-simple.o
 .bss           0x00000000        0x0 obj_cc2538dk/httpd-simple.o
 .text.urlconv_init
                0x00000000        0x0 obj_cc2538dk/httpd-simple.o
 .rodata.http_index_html
                0x00000000        0x0 obj_cc2538dk/httpd-simple.o
 .text          0x00000000        0x0 obj_cc2538dk/udp-server.o
 .data          0x00000000        0x0 obj_cc2538dk/udp-server.o
 .bss           0x00000000        0x0 obj_cc2538dk/udp-server.o
 .text          0x00000000        0x0 obj_cc2538dk/udp-client.o
 .data          0x00000000        0x0 obj_cc2538dk/udp-client.o
 .bss           0x00000000        0x0 obj_cc2538dk/udp-client.o
 .text          0x00000000        0x0 obj_cc2538dk/node-info.o
 .data          0x00000000        0x0 obj_cc2538dk/node-info.o
 .bss           0x00000000        0x0 obj_cc2538dk/node-info.o
 .text          0x00000000        0x0 obj_cc2538dk/coap-server.o
 .data          0x00000000        0x0 obj_cc2538dk/coap-server.o
 .bss           0x00000000        0x0 obj_cc2538dk/coap-server.o
 .text          0x00000000        0x0 obj_cc2538dk/block-transfer.o
 .data          0x00000000        0x0 obj_cc2538dk/block-transfer.o
 .bss           0x00000000        0x0 obj_cc2538dk/block-transfer.o
 .text.coap_blocking_request_block
                0x00000000        0x0 obj_cc2538dk/block-transfer.o
 .bss.offset.5511
                0x00000000        0x0 obj_cc2538dk/block-transfer.o
 .bss.res_block.5509
                0x00000000        0x0 obj_cc2538dk/block-transfer.o
 .bss.block_error.5510
                0x00000000        0x0 obj_cc2538dk/block-transfer.o
 .bss.more_server.5508
                0x00000000        0x0 obj_cc2538dk/block-transfer.o
 .bss.more.5507
                0x00000000        0x0 obj_cc2538dk/block-transfer.o
 .text          0x00000000        0x0 obj_cc2538dk/log-6lbr.o
 .data          0x00000000        0x0 obj_cc2538dk/log-6lbr.o
 .bss           0x00000000        0x0 obj_cc2538dk/log-6lbr.o
 .text.log6lbr_timestamp
                0x00000000        0x0 obj_cc2538dk/log-6lbr.o
 .text          0x00000000        0x0 obj_cc2538dk/rio.o
 .data          0x00000000        0x0 obj_cc2538dk/rio.o
 .bss           0x00000000        0x0 obj_cc2538dk/rio.o
 .text.uip_ds6_route_info_rm
                0x00000000        0x0 obj_cc2538dk/rio.o
 .text.uip_ds6_route_info_callback
                0x00000000        0x0 obj_cc2538dk/rio.o
 .text.uip_ds6_route_info_lookup
                0x00000000        0x0 obj_cc2538dk/rio.o
 .text          0x00000000        0x0 obj_cc2538dk/packet-filter.o
 .data          0x00000000        0x0 obj_cc2538dk/packet-filter.o
 .bss           0x00000000        0x0 obj_cc2538dk/packet-filter.o
 .text          0x00000000        0x0 obj_cc2538dk/sicslow-ethernet.o
 .data          0x00000000        0x0 obj_cc2538dk/sicslow-ethernet.o
 .bss           0x00000000        0x0 obj_cc2538dk/sicslow-ethernet.o
 .text          0x00000000        0x0 obj_cc2538dk/nvm-config.o
 .data          0x00000000        0x0 obj_cc2538dk/nvm-config.o
 .bss           0x00000000        0x0 obj_cc2538dk/nvm-config.o
 .text          0x00000000        0x0 obj_cc2538dk/cc2538dk-init.o
 .data          0x00000000        0x0 obj_cc2538dk/cc2538dk-init.o
 .bss           0x00000000        0x0 obj_cc2538dk/cc2538dk-init.o
 .text.platform_set_wsn_mac
                0x00000000        0x0 obj_cc2538dk/cc2538dk-init.o
 .text          0x00000000        0x0 obj_cc2538dk/cc2538dk-nvm.o
 .data          0x00000000        0x0 obj_cc2538dk/cc2538dk-nvm.o
 .bss           0x00000000        0x0 obj_cc2538dk/cc2538dk-nvm.o
 .text          0x00000000        0x0 obj_cc2538dk/enc28j60.o
 .data          0x00000000        0x0 obj_cc2538dk/enc28j60.o
 .bss           0x00000000        0x0 obj_cc2538dk/enc28j60.o
 .text          0x00000000        0x0 obj_cc2538dk/enc28j60-drv.o
 .data          0x00000000        0x0 obj_cc2538dk/enc28j60-drv.o
 .bss           0x00000000        0x0 obj_cc2538dk/enc28j60-drv.o
 .text.eth_drv_exit
                0x00000000        0x0 obj_cc2538dk/enc28j60-drv.o
 .text          0x00000000        0x0 obj_cc2538dk/enc28j60-arch-spi.o
 .data          0x00000000        0x0 obj_cc2538dk/enc28j60-arch-spi.o
 .bss           0x00000000        0x0 obj_cc2538dk/enc28j60-arch-spi.o
 .text          0x00000000        0x0 contiki-cc2538dk.a(er-coap-13.o)
 .data          0x00000000        0x0 contiki-cc2538dk.a(er-coap-13.o)
 .bss           0x00000000        0x0 contiki-cc2538dk.a(er-coap-13.o)
 .text.coap_set_header_accept
                0x00000000        0x0 contiki-cc2538dk.a(er-coap-13.o)
 .text.coap_get_header_etag
                0x00000000        0x0 contiki-cc2538dk.a(er-coap-13.o)
 .text.coap_set_header_if_none_match
                0x00000000        0x0 contiki-cc2538dk.a(er-coap-13.o)
 .text.coap_get_header_token
                0x00000000        0x0 contiki-cc2538dk.a(er-coap-13.o)
 .text.coap_get_header_proxy_uri
                0x00000000        0x0 contiki-cc2538dk.a(er-coap-13.o)
 .text.coap_get_header_location_path
                0x00000000        0x0 contiki-cc2538dk.a(er-coap-13.o)
 .text.coap_get_header_location_query
                0x00000000        0x0 contiki-cc2538dk.a(er-coap-13.o)
 .text.coap_get_header_observe
                0x00000000        0x0 contiki-cc2538dk.a(er-coap-13.o)
 .text.coap_get_header_block1
                0x00000000        0x0 contiki-cc2538dk.a(er-coap-13.o)
 .text.coap_set_header_block1
                0x00000000        0x0 contiki-cc2538dk.a(er-coap-13.o)
 .text.coap_set_header_uri_query
                0x00000000        0x0 contiki-cc2538dk.a(er-coap-13.o)
 .text.coap_set_header_uri_host
                0x00000000        0x0 contiki-cc2538dk.a(er-coap-13.o)
 .text.coap_set_header_proxy_uri
                0x00000000        0x0 contiki-cc2538dk.a(er-coap-13.o)
 .text.coap_set_header_if_match
                0x00000000        0x0 contiki-cc2538dk.a(er-coap-13.o)
 .text          0x00000000        0x0 contiki-cc2538dk.a(er-coap-13-engi)
 .data          0x00000000        0x0 contiki-cc2538dk.a(er-coap-13-engi)
 .bss           0x00000000        0x0 contiki-cc2538dk.a(er-coap-13-engi)
 .text.coap_blocking_request
                0x00000000        0x0 contiki-cc2538dk.a(er-coap-13-engi)
 .text.coap_blocking_request_callback
                0x00000000        0x0 contiki-cc2538dk.a(er-coap-13-engi)
 .bss.block_error.5707
                0x00000000        0x0 contiki-cc2538dk.a(er-coap-13-engi)
 .bss.more.5705
                0x00000000        0x0 contiki-cc2538dk.a(er-coap-13-engi)
 .bss.res_block.5706
                0x00000000        0x0 contiki-cc2538dk.a(er-coap-13-engi)
 .text          0x00000000        0x0 contiki-cc2538dk.a(er-coap-13-tran)
 .data          0x00000000        0x0 contiki-cc2538dk.a(er-coap-13-tran)
 .bss           0x00000000        0x0 contiki-cc2538dk.a(er-coap-13-tran)
 .text          0x00000000        0x0 contiki-cc2538dk.a(er-coap-13-obse)
 .data          0x00000000        0x0 contiki-cc2538dk.a(er-coap-13-obse)
 .bss           0x00000000        0x0 contiki-cc2538dk.a(er-coap-13-obse)
 .text.coap_remove_observer_by_token
                0x00000000        0x0 contiki-cc2538dk.a(er-coap-13-obse)
 .text          0x00000000        0x0 contiki-cc2538dk.a(er-coap-13-udp.)
 .data          0x00000000        0x0 contiki-cc2538dk.a(er-coap-13-udp.)
 .bss           0x00000000        0x0 contiki-cc2538dk.a(er-coap-13-udp.)
 .text          0x00000000        0x0 contiki-cc2538dk.a(erbium.o)
 .data          0x00000000        0x0 contiki-cc2538dk.a(erbium.o)
 .bss           0x00000000        0x0 contiki-cc2538dk.a(erbium.o)
 .text.rest_get_user_data
                0x00000000        0x0 contiki-cc2538dk.a(erbium.o)
 .text.rest_set_user_data
                0x00000000        0x0 contiki-cc2538dk.a(erbium.o)
 .text.rest_set_special_flags
                0x00000000        0x0 contiki-cc2538dk.a(erbium.o)
 .text.rest_activate_event_resource
                0x00000000        0x0 contiki-cc2538dk.a(erbium.o)
 .text.rest_activate_periodic_resource
                0x00000000        0x0 contiki-cc2538dk.a(erbium.o)
 .text          0x00000000        0x0 contiki-cc2538dk.a(contiki-main.o)
 .data          0x00000000        0x0 contiki-cc2538dk.a(contiki-main.o)
 .bss           0x00000000        0x0 contiki-cc2538dk.a(contiki-main.o)
 .text          0x00000000        0x0 contiki-cc2538dk.a(sensors.o)
 .data          0x00000000        0x0 contiki-cc2538dk.a(sensors.o)
 .bss           0x00000000        0x0 contiki-cc2538dk.a(sensors.o)
 .text.sensors_first
                0x00000000        0x0 contiki-cc2538dk.a(sensors.o)
 .text.sensors_next
                0x00000000        0x0 contiki-cc2538dk.a(sensors.o)
 .text.sensors_find
                0x00000000        0x0 contiki-cc2538dk.a(sensors.o)
 .text          0x00000000        0x0 contiki-cc2538dk.a(smartrf-sensors)
 .data          0x00000000        0x0 contiki-cc2538dk.a(smartrf-sensors)
 .bss           0x00000000        0x0 contiki-cc2538dk.a(smartrf-sensors)
 .text          0x00000000        0x0 contiki-cc2538dk.a(button-sensor.o)
 .data          0x00000000        0x0 contiki-cc2538dk.a(button-sensor.o)
 .bss           0x00000000        0x0 contiki-cc2538dk.a(button-sensor.o)
 .text          0x00000000        0x0 contiki-cc2538dk.a(adc-sensor.o)
 .data          0x00000000        0x0 contiki-cc2538dk.a(adc-sensor.o)
 .bss           0x00000000        0x0 contiki-cc2538dk.a(adc-sensor.o)
 .text          0x00000000        0x0 contiki-cc2538dk.a(clock.o)
 .data          0x00000000        0x0 contiki-cc2538dk.a(clock.o)
 .bss           0x00000000        0x0 contiki-cc2538dk.a(clock.o)
 .text.clock_set_seconds
                0x00000000        0x0 contiki-cc2538dk.a(clock.o)
 .text.clock_wait
                0x00000000        0x0 contiki-cc2538dk.a(clock.o)
 .text          0x00000000        0x0 contiki-cc2538dk.a(rtimer-arch.o)
 .data          0x00000000        0x0 contiki-cc2538dk.a(rtimer-arch.o)
 .bss           0x00000000        0x0 contiki-cc2538dk.a(rtimer-arch.o)
 .text          0x00000000        0x0 contiki-cc2538dk.a(uart.o)
 .data          0x00000000        0x0 contiki-cc2538dk.a(uart.o)
 .bss           0x00000000        0x0 contiki-cc2538dk.a(uart.o)
 .text          0x00000000        0x0 contiki-cc2538dk.a(watchdog.o)
 .data          0x00000000        0x0 contiki-cc2538dk.a(watchdog.o)
 .bss           0x00000000        0x0 contiki-cc2538dk.a(watchdog.o)
 .text.watchdog_stop
                0x00000000        0x0 contiki-cc2538dk.a(watchdog.o)
 .text          0x00000000        0x0 contiki-cc2538dk.a(nvic.o)
 .data          0x00000000        0x0 contiki-cc2538dk.a(nvic.o)
 .bss           0x00000000        0x0 contiki-cc2538dk.a(nvic.o)
 .text.nvic_interrupt_en_restore
                0x00000000        0x0 contiki-cc2538dk.a(nvic.o)
 .text.nvic_interrupt_en_save
                0x00000000        0x0 contiki-cc2538dk.a(nvic.o)
 .text.nvic_interrupt_pend
                0x00000000        0x0 contiki-cc2538dk.a(nvic.o)
 .text          0x00000000        0x0 contiki-cc2538dk.a(cpu.o)
 .data          0x00000000        0x0 contiki-cc2538dk.a(cpu.o)
 .bss           0x00000000        0x0 contiki-cc2538dk.a(cpu.o)
 .text          0x00000000        0x0 contiki-cc2538dk.a(sys-ctrl.o)
 .data          0x00000000        0x0 contiki-cc2538dk.a(sys-ctrl.o)
 .bss           0x00000000        0x0 contiki-cc2538dk.a(sys-ctrl.o)
 .text.sys_ctrl_reset
                0x00000000        0x0 contiki-cc2538dk.a(sys-ctrl.o)
 .text          0x00000000        0x0 contiki-cc2538dk.a(gpio.o)
 .data          0x00000000        0x0 contiki-cc2538dk.a(gpio.o)
 .bss           0x00000000        0x0 contiki-cc2538dk.a(gpio.o)
 .text          0x00000000        0x0 contiki-cc2538dk.a(ioc.o)
 .data          0x00000000        0x0 contiki-cc2538dk.a(ioc.o)
 .bss           0x00000000        0x0 contiki-cc2538dk.a(ioc.o)
 .text          0x00000000        0x0 contiki-cc2538dk.a(spi.o)
 .data          0x00000000        0x0 contiki-cc2538dk.a(spi.o)
 .bss           0x00000000        0x0 contiki-cc2538dk.a(spi.o)
 .text.spi_disable
                0x00000000        0x0 contiki-cc2538dk.a(spi.o)
 .text          0x00000000        0x0 contiki-cc2538dk.a(adc.o)
 .data          0x00000000        0x0 contiki-cc2538dk.a(adc.o)
 .bss           0x00000000        0x0 contiki-cc2538dk.a(adc.o)
 .text          0x00000000        0x0 contiki-cc2538dk.a(cc2538-rf.o)
 .data          0x00000000        0x0 contiki-cc2538dk.a(cc2538-rf.o)
 .bss           0x00000000        0x0 contiki-cc2538dk.a(cc2538-rf.o)
 .text.cc2538_rf_channel_get
                0x00000000        0x0 contiki-cc2538dk.a(cc2538-rf.o)
 .text.cc2538_rf_read_rssi
                0x00000000        0x0 contiki-cc2538dk.a(cc2538-rf.o)
 .text.cc2538_rf_set_promiscous_mode
                0x00000000        0x0 contiki-cc2538dk.a(cc2538-rf.o)
 .text          0x00000000        0x0 contiki-cc2538dk.a(udma.o)
 .data          0x00000000        0x0 contiki-cc2538dk.a(udma.o)
 .bss           0x00000000        0x0 contiki-cc2538dk.a(udma.o)
 .text.udma_set_channel_assignment
                0x00000000        0x0 contiki-cc2538dk.a(udma.o)
 .text.udma_channel_disable
                0x00000000        0x0 contiki-cc2538dk.a(udma.o)
 .text.udma_channel_use_alternate
                0x00000000        0x0 contiki-cc2538dk.a(udma.o)
 .text.udma_channel_use_primary
                0x00000000        0x0 contiki-cc2538dk.a(udma.o)
 .text.udma_channel_prio_set_high
                0x00000000        0x0 contiki-cc2538dk.a(udma.o)
 .text.udma_channel_prio_set_default
                0x00000000        0x0 contiki-cc2538dk.a(udma.o)
 .text.udma_channel_use_burst
                0x00000000        0x0 contiki-cc2538dk.a(udma.o)
 .text.udma_channel_use_single
                0x00000000        0x0 contiki-cc2538dk.a(udma.o)
 .text.udma_channel_mask_clr
                0x00000000        0x0 contiki-cc2538dk.a(udma.o)
 .text          0x00000000        0x0 contiki-cc2538dk.a(lpm.o)
 .data          0x00000000        0x0 contiki-cc2538dk.a(lpm.o)
 .bss           0x00000000        0x0 contiki-cc2538dk.a(lpm.o)
 .text.lpm_set_max_pm
                0x00000000        0x0 contiki-cc2538dk.a(lpm.o)
 .text          0x00000000        0x0 contiki-cc2538dk.a(dbg.o)
 .data          0x00000000        0x0 contiki-cc2538dk.a(dbg.o)
 .bss           0x00000000        0x0 contiki-cc2538dk.a(dbg.o)
 .text          0x00000000        0x0 contiki-cc2538dk.a(ieee-addr.o)
 .data          0x00000000        0x0 contiki-cc2538dk.a(ieee-addr.o)
 .bss           0x00000000        0x0 contiki-cc2538dk.a(ieee-addr.o)
 .text          0x00000000        0x0 contiki-cc2538dk.a(dbg-printf.o)
 .data          0x00000000        0x0 contiki-cc2538dk.a(dbg-printf.o)
 .bss           0x00000000        0x0 contiki-cc2538dk.a(dbg-printf.o)
 .text          0x00000000        0x0 contiki-cc2538dk.a(dbg-snprintf.o)
 .data          0x00000000        0x0 contiki-cc2538dk.a(dbg-snprintf.o)
 .bss           0x00000000        0x0 contiki-cc2538dk.a(dbg-snprintf.o)
 .text          0x00000000        0x0 contiki-cc2538dk.a(dbg-sprintf.o)
 .data          0x00000000        0x0 contiki-cc2538dk.a(dbg-sprintf.o)
 .bss           0x00000000        0x0 contiki-cc2538dk.a(dbg-sprintf.o)
 .text          0x00000000        0x0 contiki-cc2538dk.a(strformat.o)
 .data          0x00000000        0x0 contiki-cc2538dk.a(strformat.o)
 .bss           0x00000000        0x0 contiki-cc2538dk.a(strformat.o)
 .text.format_str
                0x00000000        0x0 contiki-cc2538dk.a(strformat.o)
 .text          0x00000000        0x0 contiki-cc2538dk.a(autostart.o)
 .data          0x00000000        0x0 contiki-cc2538dk.a(autostart.o)
 .bss           0x00000000        0x0 contiki-cc2538dk.a(autostart.o)
 .text.autostart_exit
                0x00000000        0x0 contiki-cc2538dk.a(autostart.o)
 .text          0x00000000        0x0 contiki-cc2538dk.a(ctimer.o)
 .data          0x00000000        0x0 contiki-cc2538dk.a(ctimer.o)
 .bss           0x00000000        0x0 contiki-cc2538dk.a(ctimer.o)
 .text.ctimer_expired
                0x00000000        0x0 contiki-cc2538dk.a(ctimer.o)
 .text.ctimer_restart
                0x00000000        0x0 contiki-cc2538dk.a(ctimer.o)
 .text          0x00000000        0x0 contiki-cc2538dk.a(energest.o)
 .data          0x00000000        0x0 contiki-cc2538dk.a(energest.o)
 .bss           0x00000000        0x0 contiki-cc2538dk.a(energest.o)
 .text.energest_type_set
                0x00000000        0x0 contiki-cc2538dk.a(energest.o)
 .text.energest_type_time
                0x00000000        0x0 contiki-cc2538dk.a(energest.o)
 .text.energest_flush
                0x00000000        0x0 contiki-cc2538dk.a(energest.o)
 .text          0x00000000        0x0 contiki-cc2538dk.a(etimer.o)
 .data          0x00000000        0x0 contiki-cc2538dk.a(etimer.o)
 .bss           0x00000000        0x0 contiki-cc2538dk.a(etimer.o)
 .text.etimer_start_time
                0x00000000        0x0 contiki-cc2538dk.a(etimer.o)
 .text.etimer_next_expiration_time
                0x00000000        0x0 contiki-cc2538dk.a(etimer.o)
 .text.etimer_adjust
                0x00000000        0x0 contiki-cc2538dk.a(etimer.o)
 .text          0x00000000        0x0 contiki-cc2538dk.a(process.o)
 .data          0x00000000        0x0 contiki-cc2538dk.a(process.o)
 .bss           0x00000000        0x0 contiki-cc2538dk.a(process.o)
 .text.process_exit
                0x00000000        0x0 contiki-cc2538dk.a(process.o)
 .text          0x00000000        0x0 contiki-cc2538dk.a(rtimer.o)
 .data          0x00000000        0x0 contiki-cc2538dk.a(rtimer.o)
 .bss           0x00000000        0x0 contiki-cc2538dk.a(rtimer.o)
 .text          0x00000000        0x0 contiki-cc2538dk.a(stimer.o)
 .data          0x00000000        0x0 contiki-cc2538dk.a(stimer.o)
 .bss           0x00000000        0x0 contiki-cc2538dk.a(stimer.o)
 .text.stimer_reset
                0x00000000        0x0 contiki-cc2538dk.a(stimer.o)
 .text          0x00000000        0x0 contiki-cc2538dk.a(timer.o)
 .data          0x00000000        0x0 contiki-cc2538dk.a(timer.o)
 .bss           0x00000000        0x0 contiki-cc2538dk.a(timer.o)
 .text.timer_remaining
                0x00000000        0x0 contiki-cc2538dk.a(timer.o)
 .text          0x00000000        0x0 contiki-cc2538dk.a(serial-line.o)
 .data          0x00000000        0x0 contiki-cc2538dk.a(serial-line.o)
 .bss           0x00000000        0x0 contiki-cc2538dk.a(serial-line.o)
 .text          0x00000000        0x0 contiki-cc2538dk.a(list.o)
 .data          0x00000000        0x0 contiki-cc2538dk.a(list.o)
 .bss           0x00000000        0x0 contiki-cc2538dk.a(list.o)
 .text.list_copy
                0x00000000        0x0 contiki-cc2538dk.a(list.o)
 .text.list_chop
                0x00000000        0x0 contiki-cc2538dk.a(list.o)
 .text.list_pop
                0x00000000        0x0 contiki-cc2538dk.a(list.o)
 .text.list_insert
                0x00000000        0x0 contiki-cc2538dk.a(list.o)
 .text          0x00000000        0x0 contiki-cc2538dk.a(memb.o)
 .data          0x00000000        0x0 contiki-cc2538dk.a(memb.o)
 .bss           0x00000000        0x0 contiki-cc2538dk.a(memb.o)
 .text          0x00000000        0x0 contiki-cc2538dk.a(random.o)
 .data          0x00000000        0x0 contiki-cc2538dk.a(random.o)
 .bss           0x00000000        0x0 contiki-cc2538dk.a(random.o)
 .text          0x00000000        0x0 contiki-cc2538dk.a(ringbuf.o)
 .data          0x00000000        0x0 contiki-cc2538dk.a(ringbuf.o)
 .bss           0x00000000        0x0 contiki-cc2538dk.a(ringbuf.o)
 .text.ringbuf_size
                0x00000000        0x0 contiki-cc2538dk.a(ringbuf.o)
 .text.ringbuf_elements
                0x00000000        0x0 contiki-cc2538dk.a(ringbuf.o)
 .text          0x00000000        0x0 contiki-cc2538dk.a(linkaddr.o)
 .data          0x00000000        0x0 contiki-cc2538dk.a(linkaddr.o)
 .bss           0x00000000        0x0 contiki-cc2538dk.a(linkaddr.o)
 .text.linkaddr_set_node_addr
                0x00000000        0x0 contiki-cc2538dk.a(linkaddr.o)
 .text          0x00000000        0x0 contiki-cc2538dk.a(nbr-table.o)
 .data          0x00000000        0x0 contiki-cc2538dk.a(nbr-table.o)
 .bss           0x00000000        0x0 contiki-cc2538dk.a(nbr-table.o)
 .text          0x00000000        0x0 contiki-cc2538dk.a(netstack.o)
 .data          0x00000000        0x0 contiki-cc2538dk.a(netstack.o)
 .bss           0x00000000        0x0 contiki-cc2538dk.a(netstack.o)
 .text          0x00000000        0x0 contiki-cc2538dk.a(packetbuf.o)
 .data          0x00000000        0x0 contiki-cc2538dk.a(packetbuf.o)
 .bss           0x00000000        0x0 contiki-cc2538dk.a(packetbuf.o)
 .text.packetbuf_clear_hdr
                0x00000000        0x0 contiki-cc2538dk.a(packetbuf.o)
 .text.packetbuf_reference
                0x00000000        0x0 contiki-cc2538dk.a(packetbuf.o)
 .text          0x00000000        0x0 contiki-cc2538dk.a(queuebuf.o)
 .data          0x00000000        0x0 contiki-cc2538dk.a(queuebuf.o)
 .bss           0x00000000        0x0 contiki-cc2538dk.a(queuebuf.o)
 .text.queuebuf_datalen
                0x00000000        0x0 contiki-cc2538dk.a(queuebuf.o)
 .text.queuebuf_addr
                0x00000000        0x0 contiki-cc2538dk.a(queuebuf.o)
 .text.queuebuf_debug_print
                0x00000000        0x0 contiki-cc2538dk.a(queuebuf.o)
 .text.queuebuf_dataptr
                0x00000000        0x0 contiki-cc2538dk.a(queuebuf.o)
 .text          0x00000000        0x0 contiki-cc2538dk.a(sicslowpan.o)
 .data          0x00000000        0x0 contiki-cc2538dk.a(sicslowpan.o)
 .bss           0x00000000        0x0 contiki-cc2538dk.a(sicslowpan.o)
 .text.rime_sniffer_add
                0x00000000        0x0 contiki-cc2538dk.a(sicslowpan.o)
 .text.rime_sniffer_remove
                0x00000000        0x0 contiki-cc2538dk.a(sicslowpan.o)
 .text.sicslowpan_get_last_rssi
                0x00000000        0x0 contiki-cc2538dk.a(sicslowpan.o)
 .text          0x00000000        0x0 contiki-cc2538dk.a(uip6.o)
 .data          0x00000000        0x0 contiki-cc2538dk.a(uip6.o)
 .bss           0x00000000        0x0 contiki-cc2538dk.a(uip6.o)
 .text.uip_connect
                0x00000000        0x0 contiki-cc2538dk.a(uip6.o)
 .text.uip_ipchksum
                0x00000000        0x0 contiki-cc2538dk.a(uip6.o)
 .text.uip_chksum
                0x00000000        0x0 contiki-cc2538dk.a(uip6.o)
 .text          0x00000000        0x0 contiki-cc2538dk.a(uip-ds6.o)
 .data          0x00000000        0x0 contiki-cc2538dk.a(uip-ds6.o)
 .bss           0x00000000        0x0 contiki-cc2538dk.a(uip-ds6.o)
 .text.uip_ds6_prefix_rm
                0x00000000        0x0 contiki-cc2538dk.a(uip-ds6.o)
 .text.uip_ds6_aaddr_rm
                0x00000000        0x0 contiki-cc2538dk.a(uip-ds6.o)
 .text.uip_ds6_aaddr_lookup
                0x00000000        0x0 contiki-cc2538dk.a(uip-ds6.o)
 .text.uip_ds6_aaddr_add
                0x00000000        0x0 contiki-cc2538dk.a(uip-ds6.o)
 .text.uip_ds6_prefix_lookup
                0x00000000        0x0 contiki-cc2538dk.a(uip-ds6.o)
 .bss.locaaddr  0x00000000        0x0 contiki-cc2538dk.a(uip-ds6.o)
 .text          0x00000000        0x0 contiki-cc2538dk.a(uip-ds6-nbr.o)
 .data          0x00000000        0x0 contiki-cc2538dk.a(uip-ds6-nbr.o)
 .bss           0x00000000        0x0 contiki-cc2538dk.a(uip-ds6-nbr.o)
 .text.uip_ds6_nbr_get_ipaddr
                0x00000000        0x0 contiki-cc2538dk.a(uip-ds6-nbr.o)
 .text.uip_ds6_get_least_lifetime_neighbor
                0x00000000        0x0 contiki-cc2538dk.a(uip-ds6-nbr.o)
 .text.uip_ds6_nbr_num
                0x00000000        0x0 contiki-cc2538dk.a(uip-ds6-nbr.o)
 .text          0x00000000        0x0 contiki-cc2538dk.a(uip-ds6-route.o)
 .data          0x00000000        0x0 contiki-cc2538dk.a(uip-ds6-route.o)
 .bss           0x00000000        0x0 contiki-cc2538dk.a(uip-ds6-route.o)
 .text.uip_ds6_route_num_routes
                0x00000000        0x0 contiki-cc2538dk.a(uip-ds6-route.o)
 .text.uip_ds6_notification_rm
                0x00000000        0x0 contiki-cc2538dk.a(uip-ds6-route.o)
 .text.uip_ds6_route_rm_by_nexthop
                0x00000000        0x0 contiki-cc2538dk.a(uip-ds6-route.o)
 .text          0x00000000        0x0 contiki-cc2538dk.a(uip-icmp6.o)
 .data          0x00000000        0x0 contiki-cc2538dk.a(uip-icmp6.o)
 .bss           0x00000000        0x0 contiki-cc2538dk.a(uip-icmp6.o)
 .text.uip_icmp6_echo_reply_callback_rm
                0x00000000        0x0 contiki-cc2538dk.a(uip-icmp6.o)
 .text.uip_icmp6_echo_reply_callback_add
                0x00000000        0x0 contiki-cc2538dk.a(uip-icmp6.o)
 .text          0x00000000        0x0 contiki-cc2538dk.a(uip-nd6.o)
 .data          0x00000000        0x0 contiki-cc2538dk.a(uip-nd6.o)
 .bss           0x00000000        0x0 contiki-cc2538dk.a(uip-nd6.o)
 .text          0x00000000        0x0 contiki-cc2538dk.a(csma.o)
 .data          0x00000000        0x0 contiki-cc2538dk.a(csma.o)
 .bss           0x00000000        0x0 contiki-cc2538dk.a(csma.o)
 .text.csma_allocated_neighbors
                0x00000000        0x0 contiki-cc2538dk.a(csma.o)
 .text.csma_allocated_packets
                0x00000000        0x0 contiki-cc2538dk.a(csma.o)
 .text          0x00000000        0x0 contiki-cc2538dk.a(framer-802154.o)
 .data          0x00000000        0x0 contiki-cc2538dk.a(framer-802154.o)
 .bss           0x00000000        0x0 contiki-cc2538dk.a(framer-802154.o)
 .text          0x00000000        0x0 contiki-cc2538dk.a(mac.o)
 .data          0x00000000        0x0 contiki-cc2538dk.a(mac.o)
 .bss           0x00000000        0x0 contiki-cc2538dk.a(mac.o)
 .text          0x00000000        0x0 contiki-cc2538dk.a(psock.o)
 .data          0x00000000        0x0 contiki-cc2538dk.a(psock.o)
 .bss           0x00000000        0x0 contiki-cc2538dk.a(psock.o)
 .text.psock_readbuf_len
                0x00000000        0x0 contiki-cc2538dk.a(psock.o)
 .text.psock_generator_send
                0x00000000        0x0 contiki-cc2538dk.a(psock.o)
 .text          0x00000000        0x0 contiki-cc2538dk.a(tcpip.o)
 .data          0x00000000        0x0 contiki-cc2538dk.a(tcpip.o)
 .bss           0x00000000        0x0 contiki-cc2538dk.a(tcpip.o)
 .text.udp_attach
                0x00000000        0x0 contiki-cc2538dk.a(tcpip.o)
 .text.icmp6_new
                0x00000000        0x0 contiki-cc2538dk.a(tcpip.o)
 .text.tcp_unlisten
                0x00000000        0x0 contiki-cc2538dk.a(tcpip.o)
 .text.tcpip_poll_tcp
                0x00000000        0x0 contiki-cc2538dk.a(tcpip.o)
 .text.tcpip_poll_udp
                0x00000000        0x0 contiki-cc2538dk.a(tcpip.o)
 .text.udp_broadcast_new
                0x00000000        0x0 contiki-cc2538dk.a(tcpip.o)
 .text.tcp_connect
                0x00000000        0x0 contiki-cc2538dk.a(tcpip.o)
 .bss.i.4955    0x00000000        0x0 contiki-cc2538dk.a(tcpip.o)
 .text          0x00000000        0x0 contiki-cc2538dk.a(uip-debug.o)
 .data          0x00000000        0x0 contiki-cc2538dk.a(uip-debug.o)
 .bss           0x00000000        0x0 contiki-cc2538dk.a(uip-debug.o)
 .text.uip_debug_lladdr_print
                0x00000000        0x0 contiki-cc2538dk.a(uip-debug.o)
 .text          0x00000000        0x0 contiki-cc2538dk.a(uiplib.o)
 .data          0x00000000        0x0 contiki-cc2538dk.a(uiplib.o)
 .bss           0x00000000        0x0 contiki-cc2538dk.a(uiplib.o)
 .text.uiplib_ip4addrconv
                0x00000000        0x0 contiki-cc2538dk.a(uiplib.o)
 .text          0x00000000        0x0 contiki-cc2538dk.a(uip-udp-packet.)
 .data          0x00000000        0x0 contiki-cc2538dk.a(uip-udp-packet.)
 .bss           0x00000000        0x0 contiki-cc2538dk.a(uip-udp-packet.)
 .text.uip_udp_packet_sendto
                0x00000000        0x0 contiki-cc2538dk.a(uip-udp-packet.)
 .text          0x00000000        0x0 contiki-cc2538dk.a(rpl.o)
 .data          0x00000000        0x0 contiki-cc2538dk.a(rpl.o)
 .bss           0x00000000        0x0 contiki-cc2538dk.a(rpl.o)
 .text.rpl_set_mode
                0x00000000        0x0 contiki-cc2538dk.a(rpl.o)
 .text          0x00000000        0x0 contiki-cc2538dk.a(rpl-dag.o)
 .data          0x00000000        0x0 contiki-cc2538dk.a(rpl-dag.o)
 .bss           0x00000000        0x0 contiki-cc2538dk.a(rpl-dag.o)
 .text.rpl_set_default_instance
                0x00000000        0x0 contiki-cc2538dk.a(rpl-dag.o)
 .text.rpl_get_parent_link_metric
                0x00000000        0x0 contiki-cc2538dk.a(rpl-dag.o)
 .text.rpl_get_parent_rank
                0x00000000        0x0 contiki-cc2538dk.a(rpl-dag.o)
 .text.rpl_free_instance
                0x00000000        0x0 contiki-cc2538dk.a(rpl-dag.o)
 .text          0x00000000        0x0 contiki-cc2538dk.a(rpl-ext-header.)
 .data          0x00000000        0x0 contiki-cc2538dk.a(rpl-ext-header.)
 .bss           0x00000000        0x0 contiki-cc2538dk.a(rpl-ext-header.)
 .text          0x00000000        0x0 contiki-cc2538dk.a(rpl-icmp6.o)
 .data          0x00000000        0x0 contiki-cc2538dk.a(rpl-icmp6.o)
 .bss           0x00000000        0x0 contiki-cc2538dk.a(rpl-icmp6.o)
 .text          0x00000000        0x0 contiki-cc2538dk.a(rpl-mrhof.o)
 .data          0x00000000        0x0 contiki-cc2538dk.a(rpl-mrhof.o)
 .bss           0x00000000        0x0 contiki-cc2538dk.a(rpl-mrhof.o)
 .text          0x00000000        0x0 contiki-cc2538dk.a(rpl-timers.o)
 .data          0x00000000        0x0 contiki-cc2538dk.a(rpl-timers.o)
 .bss           0x00000000        0x0 contiki-cc2538dk.a(rpl-timers.o)
 .text.rpl_cancel_dao
                0x00000000        0x0 contiki-cc2538dk.a(rpl-timers.o)
 .text.rpl_schedule_dao_immediately
                0x00000000        0x0 contiki-cc2538dk.a(rpl-timers.o)
 .text          0x00000000        0x0 contiki-cc2538dk.a(contikimac.o)
 .data          0x00000000        0x0 contiki-cc2538dk.a(contikimac.o)
 .bss           0x00000000        0x0 contiki-cc2538dk.a(contikimac.o)
 .text.contikimac_debug_print
                0x00000000        0x0 contiki-cc2538dk.a(contikimac.o)
 .text          0x00000000        0x0 contiki-cc2538dk.a(leds.o)
 .data          0x00000000        0x0 contiki-cc2538dk.a(leds.o)
 .bss           0x00000000        0x0 contiki-cc2538dk.a(leds.o)
 .text.leds_invert
                0x00000000        0x0 contiki-cc2538dk.a(leds.o)
 .text.leds_toggle
                0x00000000        0x0 contiki-cc2538dk.a(leds.o)
 .text.leds_get
                0x00000000        0x0 contiki-cc2538dk.a(leds.o)
 .text.leds_blink
                0x00000000        0x0 contiki-cc2538dk.a(leds.o)
 .text          0x00000000        0x0 contiki-cc2538dk.a(leds-arch.o)
 .data          0x00000000        0x0 contiki-cc2538dk.a(leds-arch.o)
 .bss           0x00000000        0x0 contiki-cc2538dk.a(leds-arch.o)
 .text.leds_arch_get
                0x00000000        0x0 contiki-cc2538dk.a(leds-arch.o)
 .text          0x00000000        0x0 contiki-cc2538dk.a(frame802154.o)
 .data          0x00000000        0x0 contiki-cc2538dk.a(frame802154.o)
 .bss           0x00000000        0x0 contiki-cc2538dk.a(frame802154.o)
 .text          0x00000000        0x0 contiki-cc2538dk.a(mac-sequence.o)
 .data          0x00000000        0x0 contiki-cc2538dk.a(mac-sequence.o)
 .bss           0x00000000        0x0 contiki-cc2538dk.a(mac-sequence.o)
 .data          0x00000000        0x0 /home/user/CodeSourcery/Sourcery_G++_Lite/bin/../lib/gcc/arm-none-eabi/4.3.2/thumb2/libgcc.a(_aeabi_uldivmod.o)
 .bss           0x00000000        0x0 /home/user/CodeSourcery/Sourcery_G++_Lite/bin/../lib/gcc/arm-none-eabi/4.3.2/thumb2/libgcc.a(_aeabi_uldivmod.o)
 .data          0x00000000        0x0 /home/user/CodeSourcery/Sourcery_G++_Lite/bin/../lib/gcc/arm-none-eabi/4.3.2/thumb2/libgcc.a(bpabi.o)
 .bss           0x00000000        0x0 /home/user/CodeSourcery/Sourcery_G++_Lite/bin/../lib/gcc/arm-none-eabi/4.3.2/thumb2/libgcc.a(bpabi.o)
 .data          0x00000000        0x0 /home/user/CodeSourcery/Sourcery_G++_Lite/bin/../lib/gcc/arm-none-eabi/4.3.2/thumb2/libgcc.a(_dvmd_tls.o)
 .bss           0x00000000        0x0 /home/user/CodeSourcery/Sourcery_G++_Lite/bin/../lib/gcc/arm-none-eabi/4.3.2/thumb2/libgcc.a(_dvmd_tls.o)
 .data          0x00000000        0x0 /home/user/CodeSourcery/Sourcery_G++_Lite/bin/../lib/gcc/arm-none-eabi/4.3.2/thumb2/libgcc.a(_divdi3.o)
 .bss           0x00000000        0x0 /home/user/CodeSourcery/Sourcery_G++_Lite/bin/../lib/gcc/arm-none-eabi/4.3.2/thumb2/libgcc.a(_divdi3.o)
 .ARM.extab     0x00000000        0x0 /home/user/CodeSourcery/Sourcery_G++_Lite/bin/../lib/gcc/arm-none-eabi/4.3.2/thumb2/libgcc.a(_divdi3.o)
 .data          0x00000000        0x0 /home/user/CodeSourcery/Sourcery_G++_Lite/bin/../lib/gcc/arm-none-eabi/4.3.2/thumb2/libgcc.a(_udivdi3.o)
 .bss           0x00000000        0x0 /home/user/CodeSourcery/Sourcery_G++_Lite/bin/../lib/gcc/arm-none-eabi/4.3.2/thumb2/libgcc.a(_udivdi3.o)
 .ARM.extab     0x00000000        0x0 /home/user/CodeSourcery/Sourcery_G++_Lite/bin/../lib/gcc/arm-none-eabi/4.3.2/thumb2/libgcc.a(_udivdi3.o)
 .data          0x00000000        0x0 /home/user/CodeSourcery/Sourcery_G++_Lite/bin/../lib/gcc/arm-none-eabi/4.3.2/thumb2/libgcc.a(_udivsi3.o)
 .bss           0x00000000        0x0 /home/user/CodeSourcery/Sourcery_G++_Lite/bin/../lib/gcc/arm-none-eabi/4.3.2/thumb2/libgcc.a(_udivsi3.o)
 .text          0x00000000        0x0 /home/user/CodeSourcery/Sourcery_G++_Lite/bin/../lib/gcc/arm-none-eabi/4.3.2/thumb2/libgcc.a(_clz.o)
 .data          0x00000000        0x0 /home/user/CodeSourcery/Sourcery_G++_Lite/bin/../lib/gcc/arm-none-eabi/4.3.2/thumb2/libgcc.a(_clz.o)
 .bss           0x00000000        0x0 /home/user/CodeSourcery/Sourcery_G++_Lite/bin/../lib/gcc/arm-none-eabi/4.3.2/thumb2/libgcc.a(_clz.o)
 .data          0x00000000        0x0 /home/user/CodeSourcery/Sourcery_G++_Lite/bin/../lib/gcc/arm-none-eabi/4.3.2/../../../../arm-none-eabi/lib/thumb2/libc.a(lib_a-atoi.o)
 .bss           0x00000000        0x0 /home/user/CodeSourcery/Sourcery_G++_Lite/bin/../lib/gcc/arm-none-eabi/4.3.2/../../../../arm-none-eabi/lib/thumb2/libc.a(lib_a-atoi.o)
 .data          0x00000000        0x0 /home/user/CodeSourcery/Sourcery_G++_Lite/bin/../lib/gcc/arm-none-eabi/4.3.2/../../../../arm-none-eabi/lib/thumb2/libc.a(lib_a-index.o)
 .bss           0x00000000        0x0 /home/user/CodeSourcery/Sourcery_G++_Lite/bin/../lib/gcc/arm-none-eabi/4.3.2/../../../../arm-none-eabi/lib/thumb2/libc.a(lib_a-index.o)
 .text          0x00000000        0x0 /home/user/CodeSourcery/Sourcery_G++_Lite/bin/../lib/gcc/arm-none-eabi/4.3.2/../../../../arm-none-eabi/lib/thumb2/libc.a(lib_a-lcltime_r.o)
 .data          0x00000000        0x0 /home/user/CodeSourcery/Sourcery_G++_Lite/bin/../lib/gcc/arm-none-eabi/4.3.2/../../../../arm-none-eabi/lib/thumb2/libc.a(lib_a-lcltime_r.o)
 .bss           0x00000000        0x0 /home/user/CodeSourcery/Sourcery_G++_Lite/bin/../lib/gcc/arm-none-eabi/4.3.2/../../../../arm-none-eabi/lib/thumb2/libc.a(lib_a-lcltime_r.o)
 .data          0x00000000        0x0 /home/user/CodeSourcery/Sourcery_G++_Lite/bin/../lib/gcc/arm-none-eabi/4.3.2/../../../../arm-none-eabi/lib/thumb2/libc.a(lib_a-memchr.o)
 .bss           0x00000000        0x0 /home/user/CodeSourcery/Sourcery_G++_Lite/bin/../lib/gcc/arm-none-eabi/4.3.2/../../../../arm-none-eabi/lib/thumb2/libc.a(lib_a-memchr.o)
 .data          0x00000000        0x0 /home/user/CodeSourcery/Sourcery_G++_Lite/bin/../lib/gcc/arm-none-eabi/4.3.2/../../../../arm-none-eabi/lib/thumb2/libc.a(lib_a-memcmp.o)
 .bss           0x00000000        0x0 /home/user/CodeSourcery/Sourcery_G++_Lite/bin/../lib/gcc/arm-none-eabi/4.3.2/../../../../arm-none-eabi/lib/thumb2/libc.a(lib_a-memcmp.o)
 .data          0x00000000        0x0 /home/user/CodeSourcery/Sourcery_G++_Lite/bin/../lib/gcc/arm-none-eabi/4.3.2/../../../../arm-none-eabi/lib/thumb2/libc.a(lib_a-memcpy.o)
 .bss           0x00000000        0x0 /home/user/CodeSourcery/Sourcery_G++_Lite/bin/../lib/gcc/arm-none-eabi/4.3.2/../../../../arm-none-eabi/lib/thumb2/libc.a(lib_a-memcpy.o)
 .data          0x00000000        0x0 /home/user/CodeSourcery/Sourcery_G++_Lite/bin/../lib/gcc/arm-none-eabi/4.3.2/../../../../arm-none-eabi/lib/thumb2/libc.a(lib_a-memmove.o)
 .bss           0x00000000        0x0 /home/user/CodeSourcery/Sourcery_G++_Lite/bin/../lib/gcc/arm-none-eabi/4.3.2/../../../../arm-none-eabi/lib/thumb2/libc.a(lib_a-memmove.o)
 .data          0x00000000        0x0 /home/user/CodeSourcery/Sourcery_G++_Lite/bin/../lib/gcc/arm-none-eabi/4.3.2/../../../../arm-none-eabi/lib/thumb2/libc.a(lib_a-memset.o)
 .bss           0x00000000        0x0 /home/user/CodeSourcery/Sourcery_G++_Lite/bin/../lib/gcc/arm-none-eabi/4.3.2/../../../../arm-none-eabi/lib/thumb2/libc.a(lib_a-memset.o)
 .text          0x00000000        0x0 /home/user/CodeSourcery/Sourcery_G++_Lite/bin/../lib/gcc/arm-none-eabi/4.3.2/../../../../arm-none-eabi/lib/thumb2/libc.a(lib_a-mktm_r.o)
 .data          0x00000000        0x0 /home/user/CodeSourcery/Sourcery_G++_Lite/bin/../lib/gcc/arm-none-eabi/4.3.2/../../../../arm-none-eabi/lib/thumb2/libc.a(lib_a-mktm_r.o)
 .bss           0x00000000        0x0 /home/user/CodeSourcery/Sourcery_G++_Lite/bin/../lib/gcc/arm-none-eabi/4.3.2/../../../../arm-none-eabi/lib/thumb2/libc.a(lib_a-mktm_r.o)
 .rodata        0x00000000        0x0 /home/user/CodeSourcery/Sourcery_G++_Lite/bin/../lib/gcc/arm-none-eabi/4.3.2/../../../../arm-none-eabi/lib/thumb2/libc.a(lib_a-mktm_r.o)
 .data          0x00000000        0x0 /home/user/CodeSourcery/Sourcery_G++_Lite/bin/../lib/gcc/arm-none-eabi/4.3.2/../../../../arm-none-eabi/lib/thumb2/libc.a(lib_a-strchr.o)
 .bss           0x00000000        0x0 /home/user/CodeSourcery/Sourcery_G++_Lite/bin/../lib/gcc/arm-none-eabi/4.3.2/../../../../arm-none-eabi/lib/thumb2/libc.a(lib_a-strchr.o)
 .data          0x00000000        0x0 /home/user/CodeSourcery/Sourcery_G++_Lite/bin/../lib/gcc/arm-none-eabi/4.3.2/../../../../arm-none-eabi/lib/thumb2/libc.a(lib_a-strcmp.o)
 .bss           0x00000000        0x0 /home/user/CodeSourcery/Sourcery_G++_Lite/bin/../lib/gcc/arm-none-eabi/4.3.2/../../../../arm-none-eabi/lib/thumb2/libc.a(lib_a-strcmp.o)
 .data          0x00000000        0x0 /home/user/CodeSourcery/Sourcery_G++_Lite/bin/../lib/gcc/arm-none-eabi/4.3.2/../../../../arm-none-eabi/lib/thumb2/libc.a(lib_a-strcpy.o)
 .bss           0x00000000        0x0 /home/user/CodeSourcery/Sourcery_G++_Lite/bin/../lib/gcc/arm-none-eabi/4.3.2/../../../../arm-none-eabi/lib/thumb2/libc.a(lib_a-strcpy.o)
 .data          0x00000000        0x0 /home/user/CodeSourcery/Sourcery_G++_Lite/bin/../lib/gcc/arm-none-eabi/4.3.2/../../../../arm-none-eabi/lib/thumb2/libc.a(lib_a-strlen.o)
 .bss           0x00000000        0x0 /home/user/CodeSourcery/Sourcery_G++_Lite/bin/../lib/gcc/arm-none-eabi/4.3.2/../../../../arm-none-eabi/lib/thumb2/libc.a(lib_a-strlen.o)
 .data          0x00000000        0x0 /home/user/CodeSourcery/Sourcery_G++_Lite/bin/../lib/gcc/arm-none-eabi/4.3.2/../../../../arm-none-eabi/lib/thumb2/libc.a(lib_a-strncmp.o)
 .bss           0x00000000        0x0 /home/user/CodeSourcery/Sourcery_G++_Lite/bin/../lib/gcc/arm-none-eabi/4.3.2/../../../../arm-none-eabi/lib/thumb2/libc.a(lib_a-strncmp.o)
 .data          0x00000000        0x0 /home/user/CodeSourcery/Sourcery_G++_Lite/bin/../lib/gcc/arm-none-eabi/4.3.2/../../../../arm-none-eabi/lib/thumb2/libc.a(lib_a-strncpy.o)
 .bss           0x00000000        0x0 /home/user/CodeSourcery/Sourcery_G++_Lite/bin/../lib/gcc/arm-none-eabi/4.3.2/../../../../arm-none-eabi/lib/thumb2/libc.a(lib_a-strncpy.o)
 .data          0x00000000        0x0 /home/user/CodeSourcery/Sourcery_G++_Lite/bin/../lib/gcc/arm-none-eabi/4.3.2/../../../../arm-none-eabi/lib/thumb2/libc.a(lib_a-strstr.o)
 .bss           0x00000000        0x0 /home/user/CodeSourcery/Sourcery_G++_Lite/bin/../lib/gcc/arm-none-eabi/4.3.2/../../../../arm-none-eabi/lib/thumb2/libc.a(lib_a-strstr.o)
 .data          0x00000000        0x0 /home/user/CodeSourcery/Sourcery_G++_Lite/bin/../lib/gcc/arm-none-eabi/4.3.2/../../../../arm-none-eabi/lib/thumb2/libc.a(lib_a-strtol.o)
 .bss           0x00000000        0x0 /home/user/CodeSourcery/Sourcery_G++_Lite/bin/../lib/gcc/arm-none-eabi/4.3.2/../../../../arm-none-eabi/lib/thumb2/libc.a(lib_a-strtol.o)
 .text          0x00000000        0x0 /home/user/CodeSourcery/Sourcery_G++_Lite/bin/../lib/gcc/arm-none-eabi/4.3.2/../../../../arm-none-eabi/lib/thumb2/libc.a(lib_a-sysgettod.o)
 .data          0x00000000        0x0 /home/user/CodeSourcery/Sourcery_G++_Lite/bin/../lib/gcc/arm-none-eabi/4.3.2/../../../../arm-none-eabi/lib/thumb2/libc.a(lib_a-sysgettod.o)
 .bss           0x00000000        0x0 /home/user/CodeSourcery/Sourcery_G++_Lite/bin/../lib/gcc/arm-none-eabi/4.3.2/../../../../arm-none-eabi/lib/thumb2/libc.a(lib_a-sysgettod.o)
 .text          0x00000000        0x0 /home/user/CodeSourcery/Sourcery_G++_Lite/bin/../lib/gcc/arm-none-eabi/4.3.2/../../../../arm-none-eabi/lib/thumb2/libc.a(lib_a-tzlock.o)
 .data          0x00000000        0x0 /home/user/CodeSourcery/Sourcery_G++_Lite/bin/../lib/gcc/arm-none-eabi/4.3.2/../../../../arm-none-eabi/lib/thumb2/libc.a(lib_a-tzlock.o)
 .bss           0x00000000        0x0 /home/user/CodeSourcery/Sourcery_G++_Lite/bin/../lib/gcc/arm-none-eabi/4.3.2/../../../../arm-none-eabi/lib/thumb2/libc.a(lib_a-tzlock.o)
 .text          0x00000000        0x0 /home/user/CodeSourcery/Sourcery_G++_Lite/bin/../lib/gcc/arm-none-eabi/4.3.2/../../../../arm-none-eabi/lib/thumb2/libc.a(lib_a-tzvars.o)
 .data          0x00000000        0x0 /home/user/CodeSourcery/Sourcery_G++_Lite/bin/../lib/gcc/arm-none-eabi/4.3.2/../../../../arm-none-eabi/lib/thumb2/libc.a(lib_a-tzvars.o)
 .bss           0x00000000        0x0 /home/user/CodeSourcery/Sourcery_G++_Lite/bin/../lib/gcc/arm-none-eabi/4.3.2/../../../../arm-none-eabi/lib/thumb2/libc.a(lib_a-tzvars.o)
 .rodata.str1.4
                0x00000000        0x0 /home/user/CodeSourcery/Sourcery_G++_Lite/bin/../lib/gcc/arm-none-eabi/4.3.2/../../../../arm-none-eabi/lib/thumb2/libc.a(lib_a-tzvars.o)
 .text          0x00000000        0x0 /home/user/CodeSourcery/Sourcery_G++_Lite/bin/../lib/gcc/arm-none-eabi/4.3.2/../../../../arm-none-eabi/lib/thumb2/libc.a(lib_a-ctype_.o)
 .bss           0x00000000        0x0 /home/user/CodeSourcery/Sourcery_G++_Lite/bin/../lib/gcc/arm-none-eabi/4.3.2/../../../../arm-none-eabi/lib/thumb2/libc.a(lib_a-ctype_.o)
 .text          0x00000000        0x0 /home/user/CodeSourcery/Sourcery_G++_Lite/bin/../lib/gcc/arm-none-eabi/4.3.2/../../../../arm-none-eabi/lib/thumb2/libc.a(lib_a-gettimeofdayr.o)
 .data          0x00000000        0x0 /home/user/CodeSourcery/Sourcery_G++_Lite/bin/../lib/gcc/arm-none-eabi/4.3.2/../../../../arm-none-eabi/lib/thumb2/libc.a(lib_a-gettimeofdayr.o)
 .bss           0x00000000        0x0 /home/user/CodeSourcery/Sourcery_G++_Lite/bin/../lib/gcc/arm-none-eabi/4.3.2/../../../../arm-none-eabi/lib/thumb2/libc.a(lib_a-gettimeofdayr.o)
 .text          0x00000000        0x0 /home/user/CodeSourcery/Sourcery_G++_Lite/bin/../lib/gcc/arm-none-eabi/4.3.2/../../../../arm-none-eabi/lib/thumb2/libc.a(lib_a-gettzinfo.o)
 .data          0x00000000        0x0 /home/user/CodeSourcery/Sourcery_G++_Lite/bin/../lib/gcc/arm-none-eabi/4.3.2/../../../../arm-none-eabi/lib/thumb2/libc.a(lib_a-gettzinfo.o)
 .bss           0x00000000        0x0 /home/user/CodeSourcery/Sourcery_G++_Lite/bin/../lib/gcc/arm-none-eabi/4.3.2/../../../../arm-none-eabi/lib/thumb2/libc.a(lib_a-gettzinfo.o)
 .text          0x00000000        0x0 /home/user/CodeSourcery/Sourcery_G++_Lite/bin/../lib/gcc/arm-none-eabi/4.3.2/../../../../arm-none-eabi/lib/thumb2/libc.a(lib_a-impure.o)
 .bss           0x00000000        0x0 /home/user/CodeSourcery/Sourcery_G++_Lite/bin/../lib/gcc/arm-none-eabi/4.3.2/../../../../arm-none-eabi/lib/thumb2/libc.a(lib_a-impure.o)
 .rodata        0x00000000        0x0 /home/user/CodeSourcery/Sourcery_G++_Lite/bin/../lib/gcc/arm-none-eabi/4.3.2/../../../../arm-none-eabi/lib/thumb2/libc.a(lib_a-impure.o)
 .text          0x00000000        0x0 /home/user/CodeSourcery/Sourcery_G++_Lite/bin/../lib/gcc/arm-none-eabi/4.3.2/../../../../arm-none-eabi/lib/thumb2/libc.a(lib_a-reent.o)
 .data          0x00000000        0x0 /home/user/CodeSourcery/Sourcery_G++_Lite/bin/../lib/gcc/arm-none-eabi/4.3.2/../../../../arm-none-eabi/lib/thumb2/libc.a(lib_a-reent.o)
 .bss           0x00000000        0x0 /home/user/CodeSourcery/Sourcery_G++_Lite/bin/../lib/gcc/arm-none-eabi/4.3.2/../../../../arm-none-eabi/lib/thumb2/libc.a(lib_a-reent.o)
 COMMON         0x00000000        0x0 /home/user/CodeSourcery/Sourcery_G++_Lite/bin/../lib/gcc/arm-none-eabi/4.3.2/../../../../arm-none-eabi/lib/thumb2/libc.a(lib_a-reent.o)
 .text          0x00000000        0x0 /home/user/CodeSourcery/Sourcery_G++_Lite/bin/../lib/gcc/arm-none-eabi/4.3.2/../../../../arm-none-eabi/lib/thumb2/libc.a(lib_a-freer.o)
 .data          0x00000000        0x0 /home/user/CodeSourcery/Sourcery_G++_Lite/bin/../lib/gcc/arm-none-eabi/4.3.2/../../../../arm-none-eabi/lib/thumb2/libc.a(lib_a-freer.o)
 .bss           0x00000000        0x0 /home/user/CodeSourcery/Sourcery_G++_Lite/bin/../lib/gcc/arm-none-eabi/4.3.2/../../../../arm-none-eabi/lib/thumb2/libc.a(lib_a-freer.o)
 .text          0x00000000        0x0 /home/user/CodeSourcery/Sourcery_G++_Lite/bin/../lib/gcc/arm-none-eabi/4.3.2/../../../../arm-none-eabi/lib/thumb2/libc.a(lib_a-mallocr.o)
 .data          0x00000000        0x0 /home/user/CodeSourcery/Sourcery_G++_Lite/bin/../lib/gcc/arm-none-eabi/4.3.2/../../../../arm-none-eabi/lib/thumb2/libc.a(lib_a-mallocr.o)
 .bss           0x00000000        0x0 /home/user/CodeSourcery/Sourcery_G++_Lite/bin/../lib/gcc/arm-none-eabi/4.3.2/../../../../arm-none-eabi/lib/thumb2/libc.a(lib_a-mallocr.o)
 .text          0x00000000        0x0 /home/user/CodeSourcery/Sourcery_G++_Lite/bin/../lib/gcc/arm-none-eabi/4.3.2/../../../../arm-none-eabi/lib/thumb2/libc.a(lib_a-mlock.o)
 .data          0x00000000        0x0 /home/user/CodeSourcery/Sourcery_G++_Lite/bin/../lib/gcc/arm-none-eabi/4.3.2/../../../../arm-none-eabi/lib/thumb2/libc.a(lib_a-mlock.o)
 .bss           0x00000000        0x0 /home/user/CodeSourcery/Sourcery_G++_Lite/bin/../lib/gcc/arm-none-eabi/4.3.2/../../../../arm-none-eabi/lib/thumb2/libc.a(lib_a-mlock.o)
 .text          0x00000000        0x0 /home/user/CodeSourcery/Sourcery_G++_Lite/bin/../lib/gcc/arm-none-eabi/4.3.2/../../../../arm-none-eabi/lib/thumb2/libc.a(lib_a-sbrkr.o)
 .data          0x00000000        0x0 /home/user/CodeSourcery/Sourcery_G++_Lite/bin/../lib/gcc/arm-none-eabi/4.3.2/../../../../arm-none-eabi/lib/thumb2/libc.a(lib_a-sbrkr.o)
 .bss           0x00000000        0x0 /home/user/CodeSourcery/Sourcery_G++_Lite/bin/../lib/gcc/arm-none-eabi/4.3.2/../../../../arm-none-eabi/lib/thumb2/libc.a(lib_a-sbrkr.o)

Memory Configuration

Name             Origin             Length             Attributes
FLASH            0x00200000         0x0007ffd4         xr
FLASH_CCA        0x0027ffd4         0x0000002c         xr
SRAM             0x20000000         0x00008000         xrw
*default*        0x00000000         0xffffffff

Linker script and memory map

LOAD obj_cc2538dk/startup-gcc.o
LOAD cetic-6lbr.co
LOAD obj_cc2538dk/webserver.o
LOAD obj_cc2538dk/httpd-simple.o
LOAD obj_cc2538dk/udp-server.o
LOAD obj_cc2538dk/udp-client.o
LOAD obj_cc2538dk/node-info.o
LOAD obj_cc2538dk/coap-server.o
LOAD obj_cc2538dk/block-transfer.o
LOAD obj_cc2538dk/log-6lbr.o
LOAD obj_cc2538dk/rio.o
LOAD obj_cc2538dk/packet-filter.o
LOAD obj_cc2538dk/sicslow-ethernet.o
LOAD obj_cc2538dk/nvm-config.o
LOAD obj_cc2538dk/cc2538dk-init.o
LOAD obj_cc2538dk/cc2538dk-nvm.o
LOAD obj_cc2538dk/enc28j60.o
LOAD obj_cc2538dk/enc28j60-drv.o
LOAD obj_cc2538dk/enc28j60-arch-spi.o
LOAD contiki-cc2538dk.a
START GROUP
LOAD /home/user/CodeSourcery/Sourcery_G++_Lite/bin/../lib/gcc/arm-none-eabi/4.3.2/thumb2/libgcc.a
LOAD /home/user/CodeSourcery/Sourcery_G++_Lite/bin/../lib/gcc/arm-none-eabi/4.3.2/../../../../arm-none-eabi/lib/thumb2/libc.a
END GROUP

.text           0x00200000    0x14f2f
                0x00200000                _text = .
 *(SORT(.vectors))
 .vectors       0x00200000      0x28c obj_cc2538dk/startup-gcc.o
                0x00200000                vectors
 *(SORT(.text*))
 .text.default_handler
                0x0020028c        0x4 obj_cc2538dk/startup-gcc.o
                0x0020028c                default_handler
 .text.reset_handler
                0x00200290       0x50 obj_cc2538dk/startup-gcc.o
                0x00200290                reset_handler
 .text.nmi_handler
                0x002002e0        0x8 obj_cc2538dk/startup-gcc.o
                0x002002e0                nmi_handler
 .text.cetic_6lbr_init
                0x002002e8      0x264 cetic-6lbr.co
                0x002002e8                cetic_6lbr_init
 .text.process_thread_cetic_6lbr_process
                0x0020054c      0x154 cetic-6lbr.co
 .text.reset_buf
                0x002006a0        0xc obj_cc2538dk/webserver.o
 .text.process_thread_webserver_nogui_process
                0x002006ac       0x3c obj_cc2538dk/webserver.o
 .text.add      0x002006e8       0x30 obj_cc2538dk/webserver.o
 .text.add_div_home
                0x00200718       0x10 obj_cc2538dk/webserver.o
 .text.add_div_footer
                0x00200728       0x10 obj_cc2538dk/webserver.o
 .text.generate_404
                0x00200738       0xf8 obj_cc2538dk/webserver.o
 .text.generate_admin
                0x00200830      0x1b0 obj_cc2538dk/webserver.o
 .text.generate_statistics
                0x002009e0      0x164 obj_cc2538dk/webserver.o
 .text.ipaddr_add_u8
                0x00200b44       0x5c obj_cc2538dk/webserver.o
 .text.lladdr_add
                0x00200ba0       0x28 obj_cc2538dk/webserver.o
 .text.ipaddr_add
                0x00200bc8       0x5c obj_cc2538dk/webserver.o
 .text.generate_restart_page
                0x00200c24      0x1a0 obj_cc2538dk/webserver.o
 .text.generate_config
                0x00200dc4      0xa98 obj_cc2538dk/webserver.o
 .text.generate_sensors
                0x0020185c      0x4cc obj_cc2538dk/webserver.o
 .text.generate_network
                0x00201d28      0x5f8 obj_cc2538dk/webserver.o
 .text.generate_rpl
                0x00202320      0x56c obj_cc2538dk/webserver.o
 .text.generate_index
                0x0020288c      0x31c obj_cc2538dk/webserver.o
 .text.update_config
                0x00202ba8      0x6a4 obj_cc2538dk/webserver.o
                0x00202ba8                update_config
 .text.httpd_simple_get_script
                0x0020324c      0x244 obj_cc2538dk/webserver.o
                0x0020324c                httpd_simple_get_script
 .text.httpd_init
                0x00203490       0x18 obj_cc2538dk/httpd-simple.o
                0x00203490                httpd_init
 .text.send_headers
                0x002034a8       0x58 obj_cc2538dk/httpd-simple.o
 .text.handle_connection
                0x00203500      0x228 obj_cc2538dk/httpd-simple.o
 .text.httpd_appcall
                0x00203728       0xc0 obj_cc2538dk/httpd-simple.o
                0x00203728                httpd_appcall
 .text.process_thread_udp_server_process
                0x002037e8       0xe0 obj_cc2538dk/udp-server.o
 .text.add_ipaddr
                0x002038c8       0x70 obj_cc2538dk/udp-client.o
                0x002038c8                add_ipaddr
 .text.process_thread_udp_client_process
                0x00203938      0x190 obj_cc2538dk/udp-client.o
 .text.node_info_lookup
                0x00203ac8       0x28 obj_cc2538dk/node-info.o
                0x00203ac8                node_info_lookup
 .text.node_info_rm
                0x00203af0       0x10 obj_cc2538dk/node-info.o
                0x00203af0                node_info_rm
 .text.node_info_node_seen
                0x00203b00       0x14 obj_cc2538dk/node-info.o
                0x00203b00                node_info_node_seen
 .text.node_info_add
                0x00203b14       0x48 obj_cc2538dk/node-info.o
                0x00203b14                node_info_add
 .text.node_info_update
                0x00203b5c       0x94 obj_cc2538dk/node-info.o
                0x00203b5c                node_info_update
 .text.node_info_route_notification_cb
                0x00203bf0       0x30 obj_cc2538dk/node-info.o
                0x00203bf0                node_info_route_notification_cb
 .text.node_info_init
                0x00203c20       0x24 obj_cc2538dk/node-info.o
                0x00203c20                node_info_init
 .text.process_thread_coap_server_process
                0x00203c44       0x18 obj_cc2538dk/coap-server.o
 .text.log6lbr_ethaddr_print
                0x00203c5c       0x20 obj_cc2538dk/log-6lbr.o
                0x00203c5c                log6lbr_ethaddr_print
 .text.uip_ds6_route_info_add
                0x00203c7c       0x68 obj_cc2538dk/rio.o
                0x00203c7c                uip_ds6_route_info_add
 .text.packet_filter_init
                0x00203ce4       0x30 obj_cc2538dk/packet-filter.o
                0x00203ce4                packet_filter_init
 .text.send_to_uip
                0x00203d14       0x28 obj_cc2538dk/packet-filter.o
 .text.wireless_input
                0x00203d3c       0x40 obj_cc2538dk/packet-filter.o
 .text.wireless_output
                0x00203d7c       0x84 obj_cc2538dk/packet-filter.o
                0x00203d7c                wireless_output
 .text.bridge_output
                0x00203e00      0x188 obj_cc2538dk/packet-filter.o
 .text.eth_input
                0x00203f88       0xf4 obj_cc2538dk/packet-filter.o
                0x00203f88                eth_input
 .text.slide    0x0020407c       0x34 obj_cc2538dk/sicslow-ethernet.o
                0x0020407c                slide
 .text.mac_createDefaultEthernetAddr
                0x002040b0       0x14 obj_cc2538dk/sicslow-ethernet.o
                0x002040b0                mac_createDefaultEthernetAddr
 .text.mac_createSicslowpanLongAddr
                0x002040c4       0x84 obj_cc2538dk/sicslow-ethernet.o
                0x002040c4                mac_createSicslowpanLongAddr
 .text.mac_createEthernetAddr
                0x00204148      0x118 obj_cc2538dk/sicslow-ethernet.o
                0x00204148                mac_createEthernetAddr
 .text.mac_translateIcmpLinkLayer
                0x00204260      0x17c obj_cc2538dk/sicslow-ethernet.o
                0x00204260                mac_translateIcmpLinkLayer
 .text.mac_translateIPLinkLayer
                0x002043dc       0x1c obj_cc2538dk/sicslow-ethernet.o
                0x002043dc                mac_translateIPLinkLayer
 .text.store_nvm_config
                0x002043f8        0x8 obj_cc2538dk/nvm-config.o
                0x002043f8                store_nvm_config
 .text.check_nvm
                0x00204400      0x204 obj_cc2538dk/nvm-config.o
                0x00204400                check_nvm
 .text.load_nvm_config
                0x00204604       0x40 obj_cc2538dk/nvm-config.o
                0x00204604                load_nvm_config
 .text.platform_init
                0x00204644       0x5c obj_cc2538dk/cc2538dk-init.o
                0x00204644                platform_init
 .text.nvm_data_write
                0x002046a0       0xa0 obj_cc2538dk/cc2538dk-nvm.o
                0x002046a0                nvm_data_write
 .text.nvm_data_read
                0x00204740       0x2c obj_cc2538dk/cc2538dk-nvm.o
                0x00204740                nvm_data_read
 .text.write_op
                0x0020476c       0x24 obj_cc2538dk/enc28j60.o
 .text.setregbank
                0x00204790       0x2c obj_cc2538dk/enc28j60.o
 .text.writereg
                0x002047bc       0x28 obj_cc2538dk/enc28j60.o
 .text.writedata
                0x002047e4       0x40 obj_cc2538dk/enc28j60.o
 .text.readreg  0x00204824       0x24 obj_cc2538dk/enc28j60.o
 .text.writephy
                0x00204848       0x34 obj_cc2538dk/enc28j60.o
 .text.reset    0x0020487c      0x144 obj_cc2538dk/enc28j60.o
 .text.process_thread_enc_watchdog_process
                0x002049c0       0x64 obj_cc2538dk/enc28j60.o
 .text.readdatabyte
                0x00204a24       0x1c obj_cc2538dk/enc28j60.o
 .text.enc28j60_read
                0x00204a40       0xdc obj_cc2538dk/enc28j60.o
                0x00204a40                enc28j60_read
 .text.enc28j60_send
                0x00204b1c       0xdc obj_cc2538dk/enc28j60.o
                0x00204b1c                enc28j60_send
 .text.enc28j60_init
                0x00204bf8       0x30 obj_cc2538dk/enc28j60.o
                0x00204bf8                enc28j60_init
 .text.eth_drv_init
                0x00204c28       0x24 obj_cc2538dk/enc28j60-drv.o
                0x00204c28                eth_drv_init
 .text.eth_drv_input
                0x00204c4c        0x8 obj_cc2538dk/enc28j60-drv.o
                0x00204c4c                eth_drv_input
 .text.enc28j60_pollhandler
                0x00204c54       0x24 obj_cc2538dk/enc28j60-drv.o
                0x00204c54                enc28j60_pollhandler
 .text.process_thread_eth_drv_process
                0x00204c78       0x60 obj_cc2538dk/enc28j60-drv.o
 .text.eth_drv_send
                0x00204cd8       0x1c obj_cc2538dk/enc28j60-drv.o
                0x00204cd8                eth_drv_send
 .text.enc28j60_arch_spi_select
                0x00204cf4        0xc obj_cc2538dk/enc28j60-arch-spi.o
                0x00204cf4                enc28j60_arch_spi_select
 .text.enc28j60_arch_spi_deselect
                0x00204d00        0xc obj_cc2538dk/enc28j60-arch-spi.o
                0x00204d00                enc28j60_arch_spi_deselect
 .text.enc28j60_arch_spi_write
                0x00204d0c       0x30 obj_cc2538dk/enc28j60-arch-spi.o
                0x00204d0c                enc28j60_arch_spi_write
 .text.enc28j60_arch_spi_read
                0x00204d3c       0x34 obj_cc2538dk/enc28j60-arch-spi.o
                0x00204d3c                enc28j60_arch_spi_read
 .text.enc28j60_arch_spi_init
                0x00204d70       0x1c obj_cc2538dk/enc28j60-arch-spi.o
                0x00204d70                enc28j60_arch_spi_init
 .text.coap_log_2
                0x00204d8c       0x18 contiki-cc2538dk.a(er-coap-13.o)
 .text.coap_parse_int_option
                0x00204da4       0x18 contiki-cc2538dk.a(er-coap-13.o)
 .text.coap_option_nibble
                0x00204dbc       0x14 contiki-cc2538dk.a(er-coap-13.o)
 .text.coap_set_option_header
                0x00204dd0       0x54 contiki-cc2538dk.a(er-coap-13.o)
 .text.coap_serialize_int_option
                0x00204e24       0x60 contiki-cc2538dk.a(er-coap-13.o)
 .text.coap_get_mid
                0x00204e84       0x10 contiki-cc2538dk.a(er-coap-13.o)
                0x00204e84                coap_get_mid
 .text.coap_set_status_code
                0x00204e94       0x10 contiki-cc2538dk.a(er-coap-13.o)
                0x00204e94                coap_set_status_code
 .text.coap_get_header_content_type
                0x00204ea4       0x10 contiki-cc2538dk.a(er-coap-13.o)
                0x00204ea4                coap_get_header_content_type
 .text.coap_set_header_content_type
                0x00204eb4       0x10 contiki-cc2538dk.a(er-coap-13.o)
                0x00204eb4                coap_set_header_content_type
 .text.coap_get_header_accept
                0x00204ec4       0x18 contiki-cc2538dk.a(er-coap-13.o)
                0x00204ec4                coap_get_header_accept
 .text.coap_get_header_max_age
                0x00204edc       0x14 contiki-cc2538dk.a(er-coap-13.o)
                0x00204edc                coap_get_header_max_age
 .text.coap_set_header_max_age
                0x00204ef0       0x10 contiki-cc2538dk.a(er-coap-13.o)
                0x00204ef0                coap_set_header_max_age
 .text.coap_get_header_if_match
                0x00204f00       0x18 contiki-cc2538dk.a(er-coap-13.o)
                0x00204f00                coap_get_header_if_match
 .text.coap_get_header_if_none_match
                0x00204f18        0x8 contiki-cc2538dk.a(er-coap-13.o)
                0x00204f18                coap_get_header_if_none_match
 .text.coap_get_header_uri_host
                0x00204f20       0x14 contiki-cc2538dk.a(er-coap-13.o)
                0x00204f20                coap_get_header_uri_host
 .text.coap_get_header_uri_path
                0x00204f34       0x14 contiki-cc2538dk.a(er-coap-13.o)
                0x00204f34                coap_get_header_uri_path
 .text.coap_get_header_uri_query
                0x00204f48       0x18 contiki-cc2538dk.a(er-coap-13.o)
                0x00204f48                coap_get_header_uri_query
 .text.coap_set_header_observe
                0x00204f60       0x10 contiki-cc2538dk.a(er-coap-13.o)
                0x00204f60                coap_set_header_observe
 .text.coap_get_header_block2
                0x00204f70       0x34 contiki-cc2538dk.a(er-coap-13.o)
                0x00204f70                coap_get_header_block2
 .text.coap_set_header_block2
                0x00204fa4       0x38 contiki-cc2538dk.a(er-coap-13.o)
                0x00204fa4                coap_set_header_block2
 .text.coap_get_header_size
                0x00204fdc       0x14 contiki-cc2538dk.a(er-coap-13.o)
                0x00204fdc                coap_get_header_size
 .text.coap_set_header_size
                0x00204ff0       0x10 contiki-cc2538dk.a(er-coap-13.o)
                0x00204ff0                coap_set_header_size
 .text.coap_get_payload
                0x00205000       0x14 contiki-cc2538dk.a(er-coap-13.o)
                0x00205000                coap_get_payload
 .text.coap_set_payload
                0x00205014       0x14 contiki-cc2538dk.a(er-coap-13.o)
                0x00205014                coap_set_payload
 .text.coap_set_header_location_query
                0x00205028       0x24 contiki-cc2538dk.a(er-coap-13.o)
                0x00205028                coap_set_header_location_query
 .text.coap_set_header_uri_path
                0x0020504c       0x24 contiki-cc2538dk.a(er-coap-13.o)
                0x0020504c                coap_set_header_uri_path
 .text.coap_set_header_location_path
                0x00205070       0x40 contiki-cc2538dk.a(er-coap-13.o)
                0x00205070                coap_set_header_location_path
 .text.coap_set_header_token
                0x002050b0       0x20 contiki-cc2538dk.a(er-coap-13.o)
                0x002050b0                coap_set_header_token
 .text.coap_set_header_etag
                0x002050d0       0x24 contiki-cc2538dk.a(er-coap-13.o)
                0x002050d0                coap_set_header_etag
 .text.coap_serialize_array_option
                0x002050f4       0x80 contiki-cc2538dk.a(er-coap-13.o)
 .text.coap_get_variable
                0x00205174       0x70 contiki-cc2538dk.a(er-coap-13.o)
 .text.coap_get_post_variable
                0x002051e4       0x1c contiki-cc2538dk.a(er-coap-13.o)
                0x002051e4                coap_get_post_variable
 .text.coap_get_query_variable
                0x00205200       0x28 contiki-cc2538dk.a(er-coap-13.o)
                0x00205200                coap_get_query_variable
 .text.coap_init_message
                0x00205228       0x20 contiki-cc2538dk.a(er-coap-13.o)
                0x00205228                coap_init_message
 .text.coap_merge_multi_option
                0x00205248       0x38 contiki-cc2538dk.a(er-coap-13.o)
 .text.coap_parse_message
                0x00205280      0x310 contiki-cc2538dk.a(er-coap-13.o)
                0x00205280                coap_parse_message
 .text.coap_serialize_message
                0x00205590      0x2ec contiki-cc2538dk.a(er-coap-13.o)
                0x00205590                coap_serialize_message
 .text.coap_init_connection
                0x0020587c       0x14 contiki-cc2538dk.a(er-coap-13.o)
                0x0020587c                coap_init_connection
 .text.coap_set_service_callback
                0x00205890        0xc contiki-cc2538dk.a(er-coap-13-engi)
                0x00205890                coap_set_service_callback
 .text.coap_get_rest_method
                0x0020589c        0xc contiki-cc2538dk.a(er-coap-13-engi)
                0x0020589c                coap_get_rest_method
 .text.process_thread_coap_receiver
                0x002058a8       0x58 contiki-cc2538dk.a(er-coap-13-engi)
 .text.well_known_core_handler
                0x00205900      0x284 contiki-cc2538dk.a(er-coap-13-engi)
                0x00205900                well_known_core_handler
 .text.coap_receiver_init
                0x00205b84       0x10 contiki-cc2538dk.a(er-coap-13-engi)
                0x00205b84                coap_receiver_init
 .text.coap_receive
                0x00205b94      0x33c contiki-cc2538dk.a(er-coap-13-engi)
                0x00205b94                coap_receive
 .text.coap_register_as_transaction_handler
                0x00205ed0       0x14 contiki-cc2538dk.a(er-coap-13-tran)
                0x00205ed0                coap_register_as_transaction_handler
 .text.coap_get_transaction_by_mid
                0x00205ee4       0x20 contiki-cc2538dk.a(er-coap-13-tran)
                0x00205ee4                coap_get_transaction_by_mid
 .text.coap_clear_transaction
                0x00205f04       0x28 contiki-cc2538dk.a(er-coap-13-tran)
                0x00205f04                coap_clear_transaction
 .text.coap_send_transaction
                0x00205f2c       0x90 contiki-cc2538dk.a(er-coap-13-tran)
                0x00205f2c                coap_send_transaction
 .text.coap_check_transactions
                0x00205fbc       0x30 contiki-cc2538dk.a(er-coap-13-tran)
                0x00205fbc                coap_check_transactions
 .text.coap_new_transaction
                0x00205fec       0x44 contiki-cc2538dk.a(er-coap-13-tran)
                0x00205fec                coap_new_transaction
 .text.coap_notify_observers
                0x00206030       0x94 contiki-cc2538dk.a(er-coap-13-obse)
                0x00206030                coap_notify_observers
 .text.coap_remove_observer
                0x002060c4       0x20 contiki-cc2538dk.a(er-coap-13-obse)
                0x002060c4                coap_remove_observer
 .text.coap_remove_observer_by_mid
                0x002060e4       0x48 contiki-cc2538dk.a(er-coap-13-obse)
                0x002060e4                coap_remove_observer_by_mid
 .text.coap_remove_observer_by_url
                0x0020612c       0x60 contiki-cc2538dk.a(er-coap-13-obse)
                0x0020612c                coap_remove_observer_by_url
 .text.coap_remove_observer_by_client
                0x0020618c       0x40 contiki-cc2538dk.a(er-coap-13-obse)
                0x0020618c                coap_remove_observer_by_client
 .text.coap_add_observer
                0x002061cc       0x64 contiki-cc2538dk.a(er-coap-13-obse)
                0x002061cc                coap_add_observer
 .text.coap_observe_handler
                0x00206230       0x94 contiki-cc2538dk.a(er-coap-13-obse)
                0x00206230                coap_observe_handler
 .text.coap_handle_receive
                0x002062c4       0x10 contiki-cc2538dk.a(er-coap-13-udp.)
                0x002062c4                coap_handle_receive
 .text.coap_send_message
                0x002062d4       0x40 contiki-cc2538dk.a(er-coap-13-udp.)
                0x002062d4                coap_send_message
 .text.coap_init_communication_layer
                0x00206314       0x1c contiki-cc2538dk.a(er-coap-13-udp.)
                0x00206314                coap_init_communication_layer
 .text.rest_get_resources
                0x00206330        0x8 contiki-cc2538dk.a(erbium.o)
                0x00206330                rest_get_resources
 .text.rest_set_pre_handler
                0x00206338        0x4 contiki-cc2538dk.a(erbium.o)
                0x00206338                rest_set_pre_handler
 .text.rest_set_post_handler
                0x0020633c        0x4 contiki-cc2538dk.a(erbium.o)
                0x0020633c                rest_set_post_handler
 .text.process_thread_rest_manager_process
                0x00206340       0x94 contiki-cc2538dk.a(erbium.o)
 .text.rest_invoke_restful_service
                0x002063d4       0xe0 contiki-cc2538dk.a(erbium.o)
                0x002063d4                rest_invoke_restful_service
 .text.rest_activate_resource
                0x002064b4       0x30 contiki-cc2538dk.a(erbium.o)
                0x002064b4                rest_activate_resource
 .text.rest_init_engine
                0x002064e4       0x30 contiki-cc2538dk.a(erbium.o)
                0x002064e4                rest_init_engine
 .text.fade     0x00206514       0x54 contiki-cc2538dk.a(contiki-main.o)
 .text.main     0x00206568      0x194 contiki-cc2538dk.a(contiki-main.o)
                0x00206568                main
 .text.get_sensor_index
                0x002066fc       0x24 contiki-cc2538dk.a(sensors.o)
 .text.process_thread_sensors_process
                0x00206720       0xdc contiki-cc2538dk.a(sensors.o)
 .text.sensors_changed
                0x002067fc       0x24 contiki-cc2538dk.a(sensors.o)
                0x002067fc                sensors_changed
 .text.config   0x00206820       0x48 contiki-cc2538dk.a(button-sensor.o)
 .text.config_down
                0x00206868       0x30 contiki-cc2538dk.a(button-sensor.o)
 .text.config_up
                0x00206898       0x30 contiki-cc2538dk.a(button-sensor.o)
 .text.config_right
                0x002068c8       0x30 contiki-cc2538dk.a(button-sensor.o)
 .text.config_left
                0x002068f8       0x30 contiki-cc2538dk.a(button-sensor.o)
 .text.config_select
                0x00206928       0x30 contiki-cc2538dk.a(button-sensor.o)
 .text.button_sensor_init
                0x00206958       0x10 contiki-cc2538dk.a(button-sensor.o)
                0x00206958                button_sensor_init
 .text.btn_callback
                0x00206968       0x5c contiki-cc2538dk.a(button-sensor.o)
 .text.status   0x002069c4        0x4 contiki-cc2538dk.a(adc-sensor.o)
 .text.configure
                0x002069c8       0x58 contiki-cc2538dk.a(adc-sensor.o)
 .text.value    0x00206a20       0x48 contiki-cc2538dk.a(adc-sensor.o)
 .text.clock_init
                0x00206a68       0x50 contiki-cc2538dk.a(clock.o)
                0x00206a68                clock_init
 .text.clock_time
                0x00206ab8       0x14 contiki-cc2538dk.a(clock.o)
                0x00206ab8                clock_time
 .text.clock_seconds
                0x00206acc       0x14 contiki-cc2538dk.a(clock.o)
                0x00206acc                clock_seconds
 .text.clock_delay_usec
                0x00206ae0       0x24 contiki-cc2538dk.a(clock.o)
                0x00206ae0                clock_delay_usec
 .text.clock_delay
                0x00206b04        0xc contiki-cc2538dk.a(clock.o)
                0x00206b04                clock_delay
 .text.update_ticks
                0x00206b10       0x4c contiki-cc2538dk.a(clock.o)
 .text.clock_isr
                0x00206b5c        0x8 contiki-cc2538dk.a(clock.o)
                0x00206b5c                clock_isr
 .text.clock_adjust
                0x00206b64       0x20 contiki-cc2538dk.a(clock.o)
                0x00206b64                clock_adjust
 .text.rtimer_arch_init
                0x00206b84        0x4 contiki-cc2538dk.a(rtimer-arch.o)
                0x00206b84                rtimer_arch_init
 .text.rtimer_arch_next_trigger
                0x00206b88        0xc contiki-cc2538dk.a(rtimer-arch.o)
                0x00206b88                rtimer_arch_next_trigger
 .text.rtimer_arch_now
                0x00206b94       0x24 contiki-cc2538dk.a(rtimer-arch.o)
                0x00206b94                rtimer_arch_now
 .text.rtimer_isr
                0x00206bb8       0x24 contiki-cc2538dk.a(rtimer-arch.o)
                0x00206bb8                rtimer_isr
 .text.rtimer_arch_schedule
                0x00206bdc       0x58 contiki-cc2538dk.a(rtimer-arch.o)
                0x00206bdc                rtimer_arch_schedule
 .text.permit_pm1
                0x00206c34       0x34 contiki-cc2538dk.a(uart.o)
 .text.uart_set_input
                0x00206c68       0x10 contiki-cc2538dk.a(uart.o)
                0x00206c68                uart_set_input
 .text.uart_write_byte
                0x00206c78       0x24 contiki-cc2538dk.a(uart.o)
                0x00206c78                uart_write_byte
 .text.uart_isr
                0x00206c9c       0x7c contiki-cc2538dk.a(uart.o)
                0x00206c9c                uart_isr
 .text.uart0_isr
                0x00206d18        0xc contiki-cc2538dk.a(uart.o)
                0x00206d18                uart0_isr
 .text.uart1_isr
                0x00206d24        0xc contiki-cc2538dk.a(uart.o)
                0x00206d24                uart1_isr
 .text.uart_init
                0x00206d30      0x114 contiki-cc2538dk.a(uart.o)
                0x00206d30                uart_init
 .text.watchdog_init
                0x00206e44        0xc contiki-cc2538dk.a(watchdog.o)
                0x00206e44                watchdog_init
 .text.watchdog_start
                0x00206e50        0xc contiki-cc2538dk.a(watchdog.o)
                0x00206e50                watchdog_start
 .text.watchdog_periodic
                0x00206e5c       0x10 contiki-cc2538dk.a(watchdog.o)
                0x00206e5c                watchdog_periodic
 .text.watchdog_reboot
                0x00206e6c        0xc contiki-cc2538dk.a(watchdog.o)
                0x00206e6c                watchdog_reboot
 .text.nvic_init
                0x00206e78       0x3c contiki-cc2538dk.a(nvic.o)
                0x00206e78                nvic_init
 .text.nvic_interrupt_enable
                0x00206eb4       0x18 contiki-cc2538dk.a(nvic.o)
                0x00206eb4                nvic_interrupt_enable
 .text.nvic_interrupt_disable
                0x00206ecc       0x18 contiki-cc2538dk.a(nvic.o)
                0x00206ecc                nvic_interrupt_disable
 .text.nvic_interrupt_unpend
                0x00206ee4       0x18 contiki-cc2538dk.a(nvic.o)
                0x00206ee4                nvic_interrupt_unpend
 .text.cpu_cpsie
                0x00206efc        0x8 contiki-cc2538dk.a(cpu.o)
                0x00206efc                cpu_cpsie
 .text.cpu_cpsid
                0x00206f04        0x8 contiki-cc2538dk.a(cpu.o)
                0x00206f04                cpu_cpsid
 .text.sys_ctrl_init
                0x00206f0c       0x28 contiki-cc2538dk.a(sys-ctrl.o)
                0x00206f0c                sys_ctrl_init
 .text.gpio_register_callback
                0x00206f34       0x10 contiki-cc2538dk.a(gpio.o)
                0x00206f34                gpio_register_callback
 .text.notify   0x00206f44       0x34 contiki-cc2538dk.a(gpio.o)
                0x00206f44                notify
 .text.gpio_init
                0x00206f78       0x14 contiki-cc2538dk.a(gpio.o)
                0x00206f78                gpio_init
 .text.gpio_port_d_isr
                0x00206f8c       0x2c contiki-cc2538dk.a(gpio.o)
                0x00206f8c                gpio_port_d_isr
 .text.gpio_port_c_isr
                0x00206fb8       0x2c contiki-cc2538dk.a(gpio.o)
                0x00206fb8                gpio_port_c_isr
 .text.gpio_port_b_isr
                0x00206fe4       0x2c contiki-cc2538dk.a(gpio.o)
                0x00206fe4                gpio_port_b_isr
 .text.gpio_port_a_isr
                0x00207010       0x28 contiki-cc2538dk.a(gpio.o)
                0x00207010                gpio_port_a_isr
 .text.ioc_init
                0x00207038       0x1c contiki-cc2538dk.a(ioc.o)
                0x00207038                ioc_init
 .text.ioc_set_over
                0x00207054       0x14 contiki-cc2538dk.a(ioc.o)
                0x00207054                ioc_set_over
 .text.ioc_set_sel
                0x00207068       0x14 contiki-cc2538dk.a(ioc.o)
                0x00207068                ioc_set_sel
 .text.spi_enable
                0x0020707c       0x10 contiki-cc2538dk.a(spi.o)
                0x0020707c                spi_enable
 .text.spi_set_mode
                0x0020708c       0x28 contiki-cc2538dk.a(spi.o)
                0x0020708c                spi_set_mode
 .text.spi_cs_init
                0x002070b4       0x34 contiki-cc2538dk.a(spi.o)
                0x002070b4                spi_cs_init
 .text.spi_init
                0x002070e8       0x90 contiki-cc2538dk.a(spi.o)
                0x002070e8                spi_init
 .text.adc_init
                0x00207178       0x10 contiki-cc2538dk.a(adc.o)
                0x00207178                adc_init
 .text.adc_get  0x00207188       0x74 contiki-cc2538dk.a(adc.o)
                0x00207188                adc_get
 .text.cc2538_rf_power_set
                0x002071fc       0x10 contiki-cc2538dk.a(cc2538-rf.o)
                0x002071fc                cc2538_rf_power_set
 .text.cc2538_rf_set_addr
                0x0020720c       0x40 contiki-cc2538dk.a(cc2538-rf.o)
                0x0020720c                cc2538_rf_set_addr
 .text.on       0x0020724c       0x2c contiki-cc2538dk.a(cc2538-rf.o)
 .text.off      0x00207278       0x3c contiki-cc2538dk.a(cc2538-rf.o)
 .text.channel_clear
                0x002072b4       0x54 contiki-cc2538dk.a(cc2538-rf.o)
 .text.cc2538_rf_channel_set
                0x00207308       0x30 contiki-cc2538dk.a(cc2538-rf.o)
                0x00207308                cc2538_rf_channel_set
 .text.receiving_packet
                0x00207338       0x18 contiki-cc2538dk.a(cc2538-rf.o)
 .text.pending_packet
                0x00207350       0x10 contiki-cc2538dk.a(cc2538-rf.o)
 .text.read     0x00207360       0xdc contiki-cc2538dk.a(cc2538-rf.o)
 .text.cc2538_rf_err_isr
                0x0020743c       0x30 contiki-cc2538dk.a(cc2538-rf.o)
                0x0020743c                cc2538_rf_err_isr
 .text.cc2538_rf_rx_tx_isr
                0x0020746c       0x18 contiki-cc2538dk.a(cc2538-rf.o)
                0x0020746c                cc2538_rf_rx_tx_isr
 .text.transmit
                0x00207484       0xac contiki-cc2538dk.a(cc2538-rf.o)
 .text.prepare  0x00207530       0x68 contiki-cc2538dk.a(cc2538-rf.o)
 .text.send     0x00207598       0x10 contiki-cc2538dk.a(cc2538-rf.o)
 .text.init     0x002075a8       0xf8 contiki-cc2538dk.a(cc2538-rf.o)
 .text.process_thread_cc2538_rf_process
                0x002076a0       0x6c contiki-cc2538dk.a(cc2538-rf.o)
 .text.udma_set_channel_src
                0x0020770c       0x10 contiki-cc2538dk.a(udma.o)
                0x0020770c                udma_set_channel_src
 .text.udma_set_channel_dst
                0x0020771c       0x14 contiki-cc2538dk.a(udma.o)
                0x0020771c                udma_set_channel_dst
 .text.udma_set_channel_control_word
                0x00207730       0x14 contiki-cc2538dk.a(udma.o)
                0x00207730                udma_set_channel_control_word
 .text.udma_channel_enable
                0x00207744       0x18 contiki-cc2538dk.a(udma.o)
                0x00207744                udma_channel_enable
 .text.udma_channel_mask_set
                0x0020775c       0x18 contiki-cc2538dk.a(udma.o)
                0x0020775c                udma_channel_mask_set
 .text.udma_channel_sw_request
                0x00207774       0x18 contiki-cc2538dk.a(udma.o)
                0x00207774                udma_channel_sw_request
 .text.udma_channel_get_mode
                0x0020778c       0x1c contiki-cc2538dk.a(udma.o)
                0x0020778c                udma_channel_get_mode
 .text.udma_isr
                0x002077a8       0x10 contiki-cc2538dk.a(udma.o)
                0x002077a8                udma_isr
 .text.udma_err_isr
                0x002077b8        0xc contiki-cc2538dk.a(udma.o)
                0x002077b8                udma_err_isr
 .text.udma_init
                0x002077c4       0x30 contiki-cc2538dk.a(udma.o)
                0x002077c4                udma_init
 .text.enter_pm0
                0x002077f4        0x4 contiki-cc2538dk.a(lpm.o)
 .text.select_32_mhz_xosc
                0x002077f8       0x34 contiki-cc2538dk.a(lpm.o)
 .text.lpm_register_peripheral
                0x0020782c       0x24 contiki-cc2538dk.a(lpm.o)
                0x0020782c                lpm_register_peripheral
 .text.lpm_init
                0x00207850       0x24 contiki-cc2538dk.a(lpm.o)
                0x00207850                lpm_init
 .text.lpm_enter
                0x00207874       0xc8 contiki-cc2538dk.a(lpm.o)
                0x00207874                lpm_enter
 .text.lpm_exit
                0x0020793c       0x38 contiki-cc2538dk.a(lpm.o)
                0x0020793c                lpm_exit
 .text.putchar  0x00207974       0x10 contiki-cc2538dk.a(dbg.o)
                0x00207974                putchar
 .text.puts     0x00207984       0x24 contiki-cc2538dk.a(dbg.o)
                0x00207984                puts
 .text.dbg_send_bytes
                0x002079a8       0x24 contiki-cc2538dk.a(dbg.o)
                0x002079a8                dbg_send_bytes
 .text.ieee_addr_cpy_to
                0x002079cc       0x78 contiki-cc2538dk.a(ieee-addr.o)
                0x002079cc                ieee_addr_cpy_to
 .text.printf   0x00207a44       0x20 contiki-cc2538dk.a(dbg-printf.o)
                0x00207a44                printf
 .text.write_str
                0x00207a64       0x10 contiki-cc2538dk.a(dbg-printf.o)
 .text.vsnprintf
                0x00207a74       0x28 contiki-cc2538dk.a(dbg-snprintf.o)
                0x00207a74                vsnprintf
 .text.buffer_str
                0x00207a9c       0x28 contiki-cc2538dk.a(dbg-snprintf.o)
 .text.snprintf
                0x00207ac4       0x18 contiki-cc2538dk.a(dbg-snprintf.o)
                0x00207ac4                snprintf
 .text.sprintf  0x00207adc       0x30 contiki-cc2538dk.a(dbg-sprintf.o)
                0x00207adc                sprintf
 .text.buffer_str
                0x00207b0c       0x18 contiki-cc2538dk.a(dbg-sprintf.o)
 .text.parse_uint
                0x00207b24       0x24 contiki-cc2538dk.a(strformat.o)
 .text.output_uint_hex
                0x00207b48       0x48 contiki-cc2538dk.a(strformat.o)
 .text.fill_space
                0x00207b90       0x38 contiki-cc2538dk.a(strformat.o)
 .text.format_str_v
                0x00207bc8      0x6c8 contiki-cc2538dk.a(strformat.o)
                0x00207bc8                format_str_v
 .text.autostart_start
                0x00208290       0x18 contiki-cc2538dk.a(autostart.o)
                0x00208290                autostart_start
 .text.process_thread_ctimer_process
                0x002082a8       0x8c contiki-cc2538dk.a(ctimer.o)
 .text.ctimer_stop
                0x00208334       0x28 contiki-cc2538dk.a(ctimer.o)
                0x00208334                ctimer_stop
 .text.ctimer_set
                0x0020835c       0x4c contiki-cc2538dk.a(ctimer.o)
                0x0020835c                ctimer_set
 .text.ctimer_reset
                0x002083a8       0x3c contiki-cc2538dk.a(ctimer.o)
                0x002083a8                ctimer_reset
 .text.ctimer_init
                0x002083e4       0x24 contiki-cc2538dk.a(ctimer.o)
                0x002083e4                ctimer_init
 .text.energest_init
                0x00208408        0x4 contiki-cc2538dk.a(energest.o)
                0x00208408                energest_init
 .text.etimer_expired
                0x0020840c        0xc contiki-cc2538dk.a(etimer.o)
                0x0020840c                etimer_expired
 .text.etimer_expiration_time
                0x00208418        0x8 contiki-cc2538dk.a(etimer.o)
                0x00208418                etimer_expiration_time
 .text.etimer_pending
                0x00208420       0x10 contiki-cc2538dk.a(etimer.o)
                0x00208420                etimer_pending
 .text.update_time
                0x00208430       0x44 contiki-cc2538dk.a(etimer.o)
 .text.etimer_stop
                0x00208474       0x34 contiki-cc2538dk.a(etimer.o)
                0x00208474                etimer_stop
 .text.etimer_request_poll
                0x002084a8       0x10 contiki-cc2538dk.a(etimer.o)
                0x002084a8                etimer_request_poll
 .text.process_thread_etimer_process
                0x002084b8       0xa0 contiki-cc2538dk.a(etimer.o)
 .text.add_timer
                0x00208558       0x40 contiki-cc2538dk.a(etimer.o)
 .text.etimer_restart
                0x00208598       0x10 contiki-cc2538dk.a(etimer.o)
                0x00208598                etimer_restart
 .text.etimer_reset
                0x002085a8       0x10 contiki-cc2538dk.a(etimer.o)
                0x002085a8                etimer_reset
 .text.etimer_set
                0x002085b8       0x10 contiki-cc2538dk.a(etimer.o)
                0x002085b8                etimer_set
 .text.process_alloc_event
                0x002085c8       0x10 contiki-cc2538dk.a(process.o)
                0x002085c8                process_alloc_event
 .text.process_init
                0x002085d8       0x30 contiki-cc2538dk.a(process.o)
                0x002085d8                process_init
 .text.process_nevents
                0x00208608       0x14 contiki-cc2538dk.a(process.o)
                0x00208608                process_nevents
 .text.process_post
                0x0020861c       0x50 contiki-cc2538dk.a(process.o)
                0x0020861c                process_post
 .text.process_poll
                0x0020866c       0x1c contiki-cc2538dk.a(process.o)
                0x0020866c                process_poll
 .text.process_is_running
                0x00208688        0xc contiki-cc2538dk.a(process.o)
                0x00208688                process_is_running
 .text.exit_process
                0x00208694       0x8c contiki-cc2538dk.a(process.o)
 .text.call_process
                0x00208720       0x40 contiki-cc2538dk.a(process.o)
 .text.process_post_synch
                0x00208760       0x14 contiki-cc2538dk.a(process.o)
                0x00208760                process_post_synch
 .text.process_start
                0x00208774       0x30 contiki-cc2538dk.a(process.o)
                0x00208774                process_start
 .text.do_poll  0x002087a4       0x34 contiki-cc2538dk.a(process.o)
 .text.process_run
                0x002087d8       0xb8 contiki-cc2538dk.a(process.o)
                0x002087d8                process_run
 .text.rtimer_run_next
                0x00208890       0x24 contiki-cc2538dk.a(rtimer.o)
                0x00208890                rtimer_run_next
 .text.rtimer_set
                0x002088b4       0x24 contiki-cc2538dk.a(rtimer.o)
                0x002088b4                rtimer_set
 .text.rtimer_init
                0x002088d8        0x8 contiki-cc2538dk.a(rtimer.o)
                0x002088d8                rtimer_init
 .text.stimer_elapsed
                0x002088e0       0x10 contiki-cc2538dk.a(stimer.o)
                0x002088e0                stimer_elapsed
 .text.stimer_remaining
                0x002088f0       0x10 contiki-cc2538dk.a(stimer.o)
                0x002088f0                stimer_remaining
 .text.stimer_expired
                0x00208900       0x20 contiki-cc2538dk.a(stimer.o)
                0x00208900                stimer_expired
 .text.stimer_restart
                0x00208920        0xc contiki-cc2538dk.a(stimer.o)
                0x00208920                stimer_restart
 .text.stimer_set
                0x0020892c       0x10 contiki-cc2538dk.a(stimer.o)
                0x0020892c                stimer_set
 .text.timer_reset
                0x0020893c        0xc contiki-cc2538dk.a(timer.o)
                0x0020893c                timer_reset
 .text.timer_expired
                0x00208948       0x1c contiki-cc2538dk.a(timer.o)
                0x00208948                timer_expired
 .text.timer_restart
                0x00208964        0xc contiki-cc2538dk.a(timer.o)
                0x00208964                timer_restart
 .text.timer_set
                0x00208970       0x10 contiki-cc2538dk.a(timer.o)
                0x00208970                timer_set
 .text.process_thread_serial_line_process
                0x00208980       0xa8 contiki-cc2538dk.a(serial-line.o)
 .text.serial_line_init
                0x00208a28       0x24 contiki-cc2538dk.a(serial-line.o)
                0x00208a28                serial_line_init
 .text.serial_line_input_byte
                0x00208a4c       0x44 contiki-cc2538dk.a(serial-line.o)
                0x00208a4c                serial_line_input_byte
 .text.list_init
                0x00208a90        0x8 contiki-cc2538dk.a(list.o)
                0x00208a90                list_init
 .text.list_head
                0x00208a98        0x4 contiki-cc2538dk.a(list.o)
                0x00208a98                list_head
 .text.list_tail
                0x00208a9c       0x10 contiki-cc2538dk.a(list.o)
                0x00208a9c                list_tail
 .text.list_remove
                0x00208aac       0x28 contiki-cc2538dk.a(list.o)
                0x00208aac                list_remove
 .text.list_push
                0x00208ad4       0x14 contiki-cc2538dk.a(list.o)
                0x00208ad4                list_push
 .text.list_add
                0x00208ae8       0x20 contiki-cc2538dk.a(list.o)
                0x00208ae8                list_add
 .text.list_length
                0x00208b08       0x10 contiki-cc2538dk.a(list.o)
                0x00208b08                list_length
 .text.list_item_next
                0x00208b18        0x8 contiki-cc2538dk.a(list.o)
                0x00208b18                list_item_next
 .text.memb_alloc
                0x00208b20       0x2c contiki-cc2538dk.a(memb.o)
                0x00208b20                memb_alloc
 .text.memb_free
                0x00208b4c       0x30 contiki-cc2538dk.a(memb.o)
                0x00208b4c                memb_free
 .text.memb_inmemb
                0x00208b7c       0x20 contiki-cc2538dk.a(memb.o)
                0x00208b7c                memb_inmemb
 .text.memb_count
                0x00208b9c       0x1c contiki-cc2538dk.a(memb.o)
                0x00208b9c                memb_count
 .text.memb_init
                0x00208bb8       0x20 contiki-cc2538dk.a(memb.o)
                0x00208bb8                memb_init
 .text.random_rand
                0x00208bd8       0x24 contiki-cc2538dk.a(random.o)
                0x00208bd8                random_rand
 .text.random_init
                0x00208bfc       0x90 contiki-cc2538dk.a(random.o)
                0x00208bfc                random_init
 .text.ringbuf_init
                0x00208c8c       0x10 contiki-cc2538dk.a(ringbuf.o)
                0x00208c8c                ringbuf_init
 .text.ringbuf_put
                0x00208c9c       0x2c contiki-cc2538dk.a(ringbuf.o)
                0x00208c9c                ringbuf_put
 .text.ringbuf_get
                0x00208cc8       0x28 contiki-cc2538dk.a(ringbuf.o)
                0x00208cc8                ringbuf_get
 .text.linkaddr_cmp
                0x00208cf0       0x14 contiki-cc2538dk.a(linkaddr.o)
                0x00208cf0                linkaddr_cmp
 .text.linkaddr_copy
                0x00208d04        0xc contiki-cc2538dk.a(linkaddr.o)
                0x00208d04                linkaddr_copy
 .text.item_from_index
                0x00208d10       0x18 contiki-cc2538dk.a(nbr-table.o)
 .text.index_from_key
                0x00208d28       0x20 contiki-cc2538dk.a(nbr-table.o)
 .text.index_from_item
                0x00208d48       0x18 contiki-cc2538dk.a(nbr-table.o)
 .text.item_from_key
                0x00208d60       0x14 contiki-cc2538dk.a(nbr-table.o)
 .text.key_from_item
                0x00208d74       0x20 contiki-cc2538dk.a(nbr-table.o)
 .text.nbr_get_bit
                0x00208d94       0x28 contiki-cc2538dk.a(nbr-table.o)
 .text.nbr_set_bit
                0x00208dbc       0x40 contiki-cc2538dk.a(nbr-table.o)
 .text.nbr_table_register
                0x00208dfc       0x28 contiki-cc2538dk.a(nbr-table.o)
                0x00208dfc                nbr_table_register
 .text.nbr_table_remove
                0x00208e24       0x2c contiki-cc2538dk.a(nbr-table.o)
                0x00208e24                nbr_table_remove
 .text.nbr_table_lock
                0x00208e50       0x18 contiki-cc2538dk.a(nbr-table.o)
                0x00208e50                nbr_table_lock
 .text.nbr_table_unlock
                0x00208e68       0x18 contiki-cc2538dk.a(nbr-table.o)
                0x00208e68                nbr_table_unlock
 .text.nbr_table_get_lladdr
                0x00208e80       0x10 contiki-cc2538dk.a(nbr-table.o)
                0x00208e80                nbr_table_get_lladdr
 .text.index_from_lladdr
                0x00208e90       0x40 contiki-cc2538dk.a(nbr-table.o)
 .text.nbr_table_get_from_lladdr
                0x00208ed0       0x2c contiki-cc2538dk.a(nbr-table.o)
                0x00208ed0                nbr_table_get_from_lladdr
 .text.nbr_table_next
                0x00208efc       0x34 contiki-cc2538dk.a(nbr-table.o)
                0x00208efc                nbr_table_next
 .text.nbr_table_head
                0x00208f30       0x38 contiki-cc2538dk.a(nbr-table.o)
                0x00208f30                nbr_table_head
 .text.nbr_table_add_lladdr
                0x00208f68      0x11c contiki-cc2538dk.a(nbr-table.o)
                0x00208f68                nbr_table_add_lladdr
 .text.netstack_init
                0x00209084       0x2c contiki-cc2538dk.a(netstack.o)
                0x00209084                netstack_init
 .text.packetbuf_hdr_remove
                0x002090b0       0x10 contiki-cc2538dk.a(packetbuf.o)
                0x002090b0                packetbuf_hdr_remove
 .text.packetbuf_hdrreduce
                0x002090c0       0x2c contiki-cc2538dk.a(packetbuf.o)
                0x002090c0                packetbuf_hdrreduce
 .text.packetbuf_set_datalen
                0x002090ec        0xc contiki-cc2538dk.a(packetbuf.o)
                0x002090ec                packetbuf_set_datalen
 .text.packetbuf_dataptr
                0x002090f8       0x18 contiki-cc2538dk.a(packetbuf.o)
                0x002090f8                packetbuf_dataptr
 .text.packetbuf_hdrptr
                0x00209110       0x14 contiki-cc2538dk.a(packetbuf.o)
                0x00209110                packetbuf_hdrptr
 .text.packetbuf_is_reference
                0x00209124       0x1c contiki-cc2538dk.a(packetbuf.o)
                0x00209124                packetbuf_is_reference
 .text.packetbuf_reference_ptr
                0x00209140        0xc contiki-cc2538dk.a(packetbuf.o)
                0x00209140                packetbuf_reference_ptr
 .text.packetbuf_datalen
                0x0020914c        0xc contiki-cc2538dk.a(packetbuf.o)
                0x0020914c                packetbuf_datalen
 .text.packetbuf_hdrlen
                0x00209158       0x10 contiki-cc2538dk.a(packetbuf.o)
                0x00209158                packetbuf_hdrlen
 .text.packetbuf_totlen
                0x00209168       0x14 contiki-cc2538dk.a(packetbuf.o)
                0x00209168                packetbuf_totlen
 .text.packetbuf_hdralloc
                0x0020917c       0x28 contiki-cc2538dk.a(packetbuf.o)
                0x0020917c                packetbuf_hdralloc
 .text.packetbuf_set_attr
                0x002091a4       0x10 contiki-cc2538dk.a(packetbuf.o)
                0x002091a4                packetbuf_set_attr
 .text.packetbuf_attr
                0x002091b4        0xc contiki-cc2538dk.a(packetbuf.o)
                0x002091b4                packetbuf_attr
 .text.packetbuf_addr
                0x002091c0       0x10 contiki-cc2538dk.a(packetbuf.o)
                0x002091c0                packetbuf_addr
 .text.packetbuf_set_addr
                0x002091d0       0x18 contiki-cc2538dk.a(packetbuf.o)
                0x002091d0                packetbuf_set_addr
 .text.packetbuf_attr_clear
                0x002091e8       0x4c contiki-cc2538dk.a(packetbuf.o)
                0x002091e8                packetbuf_attr_clear
 .text.packetbuf_clear
                0x00209234       0x38 contiki-cc2538dk.a(packetbuf.o)
                0x00209234                packetbuf_clear
 .text.packetbuf_attr_copyfrom
                0x0020926c       0x24 contiki-cc2538dk.a(packetbuf.o)
                0x0020926c                packetbuf_attr_copyfrom
 .text.packetbuf_attr_copyto
                0x00209290       0x20 contiki-cc2538dk.a(packetbuf.o)
                0x00209290                packetbuf_attr_copyto
 .text.packetbuf_copyto
                0x002092b0       0x5c contiki-cc2538dk.a(packetbuf.o)
                0x002092b0                packetbuf_copyto
 .text.packetbuf_copyto_hdr
                0x0020930c       0x24 contiki-cc2538dk.a(packetbuf.o)
                0x0020930c                packetbuf_copyto_hdr
 .text.packetbuf_compact
                0x00209330       0x60 contiki-cc2538dk.a(packetbuf.o)
                0x00209330                packetbuf_compact
 .text.packetbuf_copyfrom
                0x00209390       0x2c contiki-cc2538dk.a(packetbuf.o)
                0x00209390                packetbuf_copyfrom
 .text.queuebuf_attr
                0x002093bc        0xc contiki-cc2538dk.a(queuebuf.o)
                0x002093bc                queuebuf_attr
 .text.queuebuf_to_packetbuf
                0x002093c8       0x60 contiki-cc2538dk.a(queuebuf.o)
                0x002093c8                queuebuf_to_packetbuf
 .text.queuebuf_free
                0x00209428       0x3c contiki-cc2538dk.a(queuebuf.o)
                0x00209428                queuebuf_free
 .text.queuebuf_update_attr_from_packetbuf
                0x00209464       0x10 contiki-cc2538dk.a(queuebuf.o)
                0x00209464                queuebuf_update_attr_from_packetbuf
 .text.queuebuf_new_from_packetbuf
                0x00209474       0x6c contiki-cc2538dk.a(queuebuf.o)
                0x00209474                queuebuf_new_from_packetbuf
 .text.queuebuf_freeslots
                0x002094e0       0x1c contiki-cc2538dk.a(queuebuf.o)
                0x002094e0                queuebuf_freeslots
 .text.queuebuf_init
                0x002094fc       0x24 contiki-cc2538dk.a(queuebuf.o)
                0x002094fc                queuebuf_init
 .text.addr_context_lookup_by_number
                0x00209520       0x18 contiki-cc2538dk.a(sicslowpan.o)
 .text.compress_addr_64
                0x00209538       0xa0 contiki-cc2538dk.a(sicslowpan.o)
 .text.uncompress_addr
                0x002095d8       0x74 contiki-cc2538dk.a(sicslowpan.o)
 .text.set_packet_attrs
                0x0020964c       0x44 contiki-cc2538dk.a(sicslowpan.o)
 .text.input    0x00209690      0x5dc contiki-cc2538dk.a(sicslowpan.o)
 .text.sicslowpan_init
                0x00209c6c       0x24 contiki-cc2538dk.a(sicslowpan.o)
                0x00209c6c                sicslowpan_init
 .text.addr_context_lookup_by_prefix
                0x00209c90       0x24 contiki-cc2538dk.a(sicslowpan.o)
 .text.send_packet
                0x00209cb4       0x24 contiki-cc2538dk.a(sicslowpan.o)
 .text.output   0x00209cd8      0x700 contiki-cc2538dk.a(sicslowpan.o)
 .text.packet_sent
                0x0020a3d8       0x28 contiki-cc2538dk.a(sicslowpan.o)
 .text.uip_add32
                0x0020a400       0x60 contiki-cc2538dk.a(uip6.o)
                0x0020a400                uip_add32
 .text.chksum   0x0020a460       0x38 contiki-cc2538dk.a(uip6.o)
 .text.uip_unlisten
                0x0020a498       0x3c contiki-cc2538dk.a(uip6.o)
                0x0020a498                uip_unlisten
 .text.uip_listen
                0x0020a4d4       0x34 contiki-cc2538dk.a(uip6.o)
                0x0020a4d4                uip_listen
 .text.uip_add_rcv_nxt
                0x0020a508       0x34 contiki-cc2538dk.a(uip6.o)
 .text.uip_htons
                0x0020a53c        0xc contiki-cc2538dk.a(uip6.o)
                0x0020a53c                uip_htons
 .text.upper_layer_chksum
                0x0020a548       0x50 contiki-cc2538dk.a(uip6.o)
 .text.uip_udpchksum
                0x0020a598        0xc contiki-cc2538dk.a(uip6.o)
                0x0020a598                uip_udpchksum
 .text.uip_tcpchksum
                0x0020a5a4        0xc contiki-cc2538dk.a(uip6.o)
                0x0020a5a4                uip_tcpchksum
 .text.uip_icmp6chksum
                0x0020a5b0        0xc contiki-cc2538dk.a(uip6.o)
                0x0020a5b0                uip_icmp6chksum
 .text.uip_htonl
                0x0020a5bc       0x18 contiki-cc2538dk.a(uip6.o)
                0x0020a5bc                uip_htonl
 .text.uip_send
                0x0020a5d4       0x4c contiki-cc2538dk.a(uip6.o)
                0x0020a5d4                uip_send
 .text.ext_hdr_options_process
                0x0020a620       0xb8 contiki-cc2538dk.a(uip6.o)
 .text.uip_udp_new
                0x0020a6d8       0xac contiki-cc2538dk.a(uip6.o)
                0x0020a6d8                uip_udp_new
 .text.remove_ext_hdr
                0x0020a784       0x58 contiki-cc2538dk.a(uip6.o)
                0x0020a784                remove_ext_hdr
 .text.uip_process
                0x0020a7dc      0xe60 contiki-cc2538dk.a(uip6.o)
                0x0020a7dc                uip_process
 .text.uip_init
                0x0020b63c       0x78 contiki-cc2538dk.a(uip6.o)
                0x0020b63c                uip_init
 .text.uip_ds6_get_link_local
                0x0020b6b4       0x44 contiki-cc2538dk.a(uip-ds6.o)
                0x0020b6b4                uip_ds6_get_link_local
 .text.uip_ds6_get_global
                0x0020b6f8       0x44 contiki-cc2538dk.a(uip-ds6.o)
                0x0020b6f8                uip_ds6_get_global
 .text.uip_ds6_maddr_rm
                0x0020b73c        0x8 contiki-cc2538dk.a(uip-ds6.o)
                0x0020b73c                uip_ds6_maddr_rm
 .text.get_match_length
                0x0020b744       0x44 contiki-cc2538dk.a(uip-ds6.o)
                0x0020b744                get_match_length
 .text.uip_ds6_select_src
                0x0020b788       0x98 contiki-cc2538dk.a(uip-ds6.o)
                0x0020b788                uip_ds6_select_src
 .text.uip_ds6_compute_reachable_time
                0x0020b820       0x28 contiki-cc2538dk.a(uip-ds6.o)
                0x0020b820                uip_ds6_compute_reachable_time
 .text.uip_ds6_send_ra_periodic
                0x0020b848       0x6c contiki-cc2538dk.a(uip-ds6.o)
                0x0020b848                uip_ds6_send_ra_periodic
 .text.uip_ds6_send_ra_sollicited
                0x0020b8b4       0x3c contiki-cc2538dk.a(uip-ds6.o)
                0x0020b8b4                uip_ds6_send_ra_sollicited
 .text.uip_ds6_dad
                0x0020b8f0       0x44 contiki-cc2538dk.a(uip-ds6.o)
                0x0020b8f0                uip_ds6_dad
 .text.uip_ds6_set_addr_iid
                0x0020b934       0x18 contiki-cc2538dk.a(uip-ds6.o)
                0x0020b934                uip_ds6_set_addr_iid
 .text.uip_ds6_is_addr_onlink
                0x0020b94c       0x40 contiki-cc2538dk.a(uip-ds6.o)
                0x0020b94c                uip_ds6_is_addr_onlink
 .text.uip_ds6_list_loop
                0x0020b98c       0x48 contiki-cc2538dk.a(uip-ds6.o)
                0x0020b98c                uip_ds6_list_loop
 .text.uip_ds6_maddr_lookup
                0x0020b9d4       0x28 contiki-cc2538dk.a(uip-ds6.o)
                0x0020b9d4                uip_ds6_maddr_lookup
 .text.uip_ds6_addr_rm
                0x0020b9fc       0x48 contiki-cc2538dk.a(uip-ds6.o)
                0x0020b9fc                uip_ds6_addr_rm
 .text.uip_ds6_dad_failed
                0x0020ba44       0x1c contiki-cc2538dk.a(uip-ds6.o)
                0x0020ba44                uip_ds6_dad_failed
 .text.uip_ds6_maddr_add
                0x0020ba60       0x3c contiki-cc2538dk.a(uip-ds6.o)
                0x0020ba60                uip_ds6_maddr_add
 .text.uip_ds6_addr_lookup
                0x0020ba9c       0x28 contiki-cc2538dk.a(uip-ds6.o)
                0x0020ba9c                uip_ds6_addr_lookup
 .text.uip_ds6_addr_add
                0x0020bac4       0xb0 contiki-cc2538dk.a(uip-ds6.o)
                0x0020bac4                uip_ds6_addr_add
 .text.uip_ds6_prefix_add
                0x0020bb74       0x60 contiki-cc2538dk.a(uip-ds6.o)
                0x0020bb74                uip_ds6_prefix_add
 .text.uip_ds6_periodic
                0x0020bbd4       0x9c contiki-cc2538dk.a(uip-ds6.o)
                0x0020bbd4                uip_ds6_periodic
 .text.uip_ds6_init
                0x0020bc70       0xf4 contiki-cc2538dk.a(uip-ds6.o)
                0x0020bc70                uip_ds6_init
 .text.uip_ds6_link_neighbor_callback
                0x0020bd64       0x28 contiki-cc2538dk.a(uip-ds6-nbr.o)
                0x0020bd64                uip_ds6_link_neighbor_callback
 .text.uip_ds6_nbr_ll_lookup
                0x0020bd8c       0x14 contiki-cc2538dk.a(uip-ds6-nbr.o)
                0x0020bd8c                uip_ds6_nbr_ll_lookup
 .text.uip_ds6_nbr_ipaddr_from_lladdr
                0x0020bda0        0x8 contiki-cc2538dk.a(uip-ds6-nbr.o)
                0x0020bda0                uip_ds6_nbr_ipaddr_from_lladdr
 .text.uip_ds6_nbr_lookup
                0x0020bda8       0x38 contiki-cc2538dk.a(uip-ds6-nbr.o)
                0x0020bda8                uip_ds6_nbr_lookup
 .text.uip_ds6_nbr_get_ll
                0x0020bde0       0x14 contiki-cc2538dk.a(uip-ds6-nbr.o)
                0x0020bde0                uip_ds6_nbr_get_ll
 .text.uip_ds6_nbr_lladdr_from_ipaddr
                0x0020bdf4       0x10 contiki-cc2538dk.a(uip-ds6-nbr.o)
                0x0020bdf4                uip_ds6_nbr_lladdr_from_ipaddr
 .text.uip_ds6_nbr_rm
                0x0020be04       0x1c contiki-cc2538dk.a(uip-ds6-nbr.o)
                0x0020be04                uip_ds6_nbr_rm
 .text.uip_ds6_neighbor_periodic
                0x0020be20      0x110 contiki-cc2538dk.a(uip-ds6-nbr.o)
                0x0020be20                uip_ds6_neighbor_periodic
 .text.uip_ds6_nbr_add
                0x0020bf30       0x50 contiki-cc2538dk.a(uip-ds6-nbr.o)
                0x0020bf30                uip_ds6_nbr_add
 .text.uip_ds6_neighbors_init
                0x0020bf80       0x18 contiki-cc2538dk.a(uip-ds6-nbr.o)
                0x0020bf80                uip_ds6_neighbors_init
 .text.uip_ds6_defrt_list_head
                0x0020bf98       0x10 contiki-cc2538dk.a(uip-ds6-route.o)
                0x0020bf98                uip_ds6_defrt_list_head
 .text.uip_ds6_route_head
                0x0020bfa8       0x10 contiki-cc2538dk.a(uip-ds6-route.o)
                0x0020bfa8                uip_ds6_route_head
 .text.uip_ds6_route_next
                0x0020bfb8        0xc contiki-cc2538dk.a(uip-ds6-route.o)
                0x0020bfb8                uip_ds6_route_next
 .text.uip_ds6_defrt_choose
                0x0020bfc4       0x34 contiki-cc2538dk.a(uip-ds6-route.o)
                0x0020bfc4                uip_ds6_defrt_choose
 .text.uip_ds6_defrt_lookup
                0x0020bff8       0x2c contiki-cc2538dk.a(uip-ds6-route.o)
                0x0020bff8                uip_ds6_defrt_lookup
 .text.call_route_callback
                0x0020c024       0x4c contiki-cc2538dk.a(uip-ds6-route.o)
 .text.uip_ds6_defrt_rm
                0x0020c070       0x44 contiki-cc2538dk.a(uip-ds6-route.o)
                0x0020c070                uip_ds6_defrt_rm
 .text.uip_ds6_defrt_periodic
                0x0020c0b4       0x34 contiki-cc2538dk.a(uip-ds6-route.o)
                0x0020c0b4                uip_ds6_defrt_periodic
 .text.uip_ds6_defrt_add
                0x0020c0e8       0x54 contiki-cc2538dk.a(uip-ds6-route.o)
                0x0020c0e8                uip_ds6_defrt_add
 .text.uip_ds6_route_lookup
                0x0020c13c       0x58 contiki-cc2538dk.a(uip-ds6-route.o)
                0x0020c13c                uip_ds6_route_lookup
 .text.uip_ds6_notification_add
                0x0020c194       0x18 contiki-cc2538dk.a(uip-ds6-route.o)
                0x0020c194                uip_ds6_notification_add
 .text.uip_ds6_route_nexthop
                0x0020c1ac       0x1c contiki-cc2538dk.a(uip-ds6-route.o)
                0x0020c1ac                uip_ds6_route_nexthop
 .text.uip_ds6_route_rm
                0x0020c1c8       0x98 contiki-cc2538dk.a(uip-ds6-route.o)
                0x0020c1c8                uip_ds6_route_rm
 .text.rm_routelist
                0x0020c260       0x2c contiki-cc2538dk.a(uip-ds6-route.o)
 .text.rm_routelist_callback
                0x0020c28c        0x8 contiki-cc2538dk.a(uip-ds6-route.o)
 .text.uip_ds6_route_add
                0x0020c294       0xd8 contiki-cc2538dk.a(uip-ds6-route.o)
                0x0020c294                uip_ds6_route_add
 .text.uip_ds6_route_init
                0x0020c36c       0x48 contiki-cc2538dk.a(uip-ds6-route.o)
                0x0020c36c                uip_ds6_route_init
 .text.echo_reply_input
                0x0020c3b4       0xe8 contiki-cc2538dk.a(uip-icmp6.o)
 .text.uip_icmp6_input
                0x0020c49c       0x3c contiki-cc2538dk.a(uip-icmp6.o)
                0x0020c49c                uip_icmp6_input
 .text.echo_request_input
                0x0020c4d8      0x108 contiki-cc2538dk.a(uip-icmp6.o)
 .text.uip_icmp6_register_input_handler
                0x0020c5e0       0x10 contiki-cc2538dk.a(uip-icmp6.o)
                0x0020c5e0                uip_icmp6_register_input_handler
 .text.uip_icmp6_init
                0x0020c5f0       0x18 contiki-cc2538dk.a(uip-icmp6.o)
                0x0020c5f0                uip_icmp6_init
 .text.uip_icmp6_send
                0x0020c608       0x80 contiki-cc2538dk.a(uip-icmp6.o)
                0x0020c608                uip_icmp6_send
 .text.uip_icmp6_error_output
                0x0020c688      0x148 contiki-cc2538dk.a(uip-icmp6.o)
                0x0020c688                uip_icmp6_error_output
 .text.uip_nd6_init
                0x0020c7d0       0x24 contiki-cc2538dk.a(uip-nd6.o)
                0x0020c7d0                uip_nd6_init
 .text.rs_input
                0x0020c7f4      0x148 contiki-cc2538dk.a(uip-nd6.o)
 .text.na_input
                0x0020c93c      0x1d8 contiki-cc2538dk.a(uip-nd6.o)
 .text.create_llao
                0x0020cb14       0x28 contiki-cc2538dk.a(uip-nd6.o)
 .text.ns_input
                0x0020cb3c      0x2e0 contiki-cc2538dk.a(uip-nd6.o)
 .text.uip_nd6_ns_output
                0x0020ce1c      0x12c contiki-cc2538dk.a(uip-nd6.o)
                0x0020ce1c                uip_nd6_ns_output
 .text.uip_nd6_ra_output
                0x0020cf48      0x280 contiki-cc2538dk.a(uip-nd6.o)
                0x0020cf48                uip_nd6_ra_output
 .text.default_timebase
                0x0020d1c8       0x14 contiki-cc2538dk.a(csma.o)
 .text.input_packet
                0x0020d1dc       0x1c contiki-cc2538dk.a(csma.o)
 .text.on       0x0020d1f8       0x10 contiki-cc2538dk.a(csma.o)
 .text.off      0x0020d208       0x10 contiki-cc2538dk.a(csma.o)
 .text.channel_check_interval
                0x0020d218       0x10 contiki-cc2538dk.a(csma.o)
 .text.transmit_packet_list
                0x0020d228       0x24 contiki-cc2538dk.a(csma.o)
 .text.send_packet
                0x0020d24c      0x17c contiki-cc2538dk.a(csma.o)
 .text.free_packet
                0x0020d3c8       0x7c contiki-cc2538dk.a(csma.o)
 .text.packet_sent
                0x0020d444      0x134 contiki-cc2538dk.a(csma.o)
 .text.init     0x0020d578       0x2c contiki-cc2538dk.a(csma.o)
 .text.parse    0x0020d5a4       0x8c contiki-cc2538dk.a(framer-802154.o)
 .text.create   0x0020d630      0x120 contiki-cc2538dk.a(framer-802154.o)
 .text.mac_call_sent_callback
                0x0020d750       0x10 contiki-cc2538dk.a(mac.o)
                0x0020d750                mac_call_sent_callback
 .text.buf_setup
                0x0020d760        0x8 contiki-cc2538dk.a(psock.o)
 .text.psock_datalen
                0x0020d768        0xc contiki-cc2538dk.a(psock.o)
                0x0020d768                psock_datalen
 .text.psock_newdata
                0x0020d774       0x28 contiki-cc2538dk.a(psock.o)
                0x0020d774                psock_newdata
 .text.psock_readto
                0x0020d79c       0xb0 contiki-cc2538dk.a(psock.o)
                0x0020d79c                psock_readto
 .text.psock_init
                0x0020d84c       0x20 contiki-cc2538dk.a(psock.o)
                0x0020d84c                psock_init
 .text.psock_send
                0x0020d86c       0xa0 contiki-cc2538dk.a(psock.o)
                0x0020d86c                psock_send
 .text.tcpip_output
                0x0020d90c       0x14 contiki-cc2538dk.a(tcpip.o)
                0x0020d90c                tcpip_output
 .text.tcpip_set_outputfunc
                0x0020d920        0xc contiki-cc2538dk.a(tcpip.o)
                0x0020d920                tcpip_set_outputfunc
 .text.tcpip_get_outputfunc
                0x0020d92c        0xc contiki-cc2538dk.a(tcpip.o)
                0x0020d92c                tcpip_get_outputfunc
 .text.tcpip_input
                0x0020d938       0x10 contiki-cc2538dk.a(tcpip.o)
                0x0020d938                tcpip_input
 .text.tcpip_set_inputfunc
                0x0020d948        0xc contiki-cc2538dk.a(tcpip.o)
                0x0020d948                tcpip_set_inputfunc
 .text.tcpip_get_inputfunc
                0x0020d954        0xc contiki-cc2538dk.a(tcpip.o)
                0x0020d954                tcpip_get_inputfunc
 .text.tcp_attach
                0x0020d960       0x10 contiki-cc2538dk.a(tcpip.o)
                0x0020d960                tcp_attach
 .text.start_periodic_tcp_timer
                0x0020d970       0x18 contiki-cc2538dk.a(tcpip.o)
 .text.tcpip_uipcall
                0x0020d988       0x84 contiki-cc2538dk.a(tcpip.o)
                0x0020d988                tcpip_uipcall
 .text.tcpip_inputfunc
                0x0020da0c       0x24 contiki-cc2538dk.a(tcpip.o)
                0x0020da0c                tcpip_inputfunc
 .text.tcpip_icmp6_call
                0x0020da30       0x24 contiki-cc2538dk.a(tcpip.o)
                0x0020da30                tcpip_icmp6_call
 .text.tcpip_ipv6_output
                0x0020da54      0x144 contiki-cc2538dk.a(tcpip.o)
                0x0020da54                tcpip_ipv6_output
 .text.process_thread_tcpip_process
                0x0020db98      0x204 contiki-cc2538dk.a(tcpip.o)
 .text.udp_new  0x0020dd9c       0x1c contiki-cc2538dk.a(tcpip.o)
                0x0020dd9c                udp_new
 .text.tcp_listen
                0x0020ddb8       0x44 contiki-cc2538dk.a(tcpip.o)
                0x0020ddb8                tcp_listen
 .text.uip_debug_ipaddr_print
                0x0020ddfc       0x64 contiki-cc2538dk.a(uip-debug.o)
                0x0020ddfc                uip_debug_ipaddr_print
 .text.uiplib_ip6addrconv
                0x0020de60       0xd4 contiki-cc2538dk.a(uiplib.o)
                0x0020de60                uiplib_ip6addrconv
 .text.uip_udp_packet_send
                0x0020df34       0x3c contiki-cc2538dk.a(uip-udp-packet.)
                0x0020df34                uip_udp_packet_send
 .text.rpl_get_mode
                0x0020df70        0xc contiki-cc2538dk.a(rpl.o)
                0x0020df70                rpl_get_mode
 .text.rpl_init
                0x0020df7c       0x54 contiki-cc2538dk.a(rpl.o)
                0x0020df7c                rpl_init
 .text.rpl_purge_dags
                0x0020dfd0       0x60 contiki-cc2538dk.a(rpl.o)
                0x0020dfd0                rpl_purge_dags
 .text.rpl_ipv6_neighbor_callback
                0x0020e030       0x3c contiki-cc2538dk.a(rpl.o)
                0x0020e030                rpl_ipv6_neighbor_callback
 .text.rpl_link_neighbor_callback
                0x0020e06c       0x74 contiki-cc2538dk.a(rpl.o)
                0x0020e06c                rpl_link_neighbor_callback
 .text.rpl_add_route
                0x0020e0e0       0x58 contiki-cc2538dk.a(rpl.o)
                0x0020e0e0                rpl_add_route
 .text.rpl_remove_routes_by_nexthop
                0x0020e138       0x38 contiki-cc2538dk.a(rpl.o)
                0x0020e138                rpl_remove_routes_by_nexthop
 .text.rpl_remove_routes
                0x0020e170       0x20 contiki-cc2538dk.a(rpl.o)
                0x0020e170                rpl_remove_routes
 .text.rpl_purge_routes
                0x0020e190       0x68 contiki-cc2538dk.a(rpl.o)
                0x0020e190                rpl_purge_routes
 .text.lollipop_greater_than
                0x0020e1f8       0x3c contiki-cc2538dk.a(rpl-dag.o)
 .text.acceptable_rank
                0x0020e234       0x34 contiki-cc2538dk.a(rpl-dag.o)
 .text.rpl_get_any_dag
                0x0020e268       0x18 contiki-cc2538dk.a(rpl-dag.o)
                0x0020e268                rpl_get_any_dag
 .text.rpl_get_instance
                0x0020e280       0x1c contiki-cc2538dk.a(rpl-dag.o)
                0x0020e280                rpl_get_instance
 .text.rpl_find_of
                0x0020e29c       0x14 contiki-cc2538dk.a(rpl-dag.o)
                0x0020e29c                rpl_find_of
 .text.rpl_lock_parent
                0x0020e2b0       0x10 contiki-cc2538dk.a(rpl-dag.o)
                0x0020e2b0                rpl_lock_parent
 .text.rpl_repair_root
                0x0020e2c0       0x5c contiki-cc2538dk.a(rpl-dag.o)
                0x0020e2c0                rpl_repair_root
 .text.find_parent_any_dag_any_instance
                0x0020e31c       0x18 contiki-cc2538dk.a(rpl-dag.o)
 .text.find_parent_dag
                0x0020e334       0x10 contiki-cc2538dk.a(rpl-dag.o)
 .text.rpl_find_parent_any_dag
                0x0020e344       0x20 contiki-cc2538dk.a(rpl-dag.o)
                0x0020e344                rpl_find_parent_any_dag
 .text.rpl_find_parent
                0x0020e364       0x1c contiki-cc2538dk.a(rpl-dag.o)
                0x0020e364                rpl_find_parent
 .text.rpl_get_parent
                0x0020e380       0x10 contiki-cc2538dk.a(rpl-dag.o)
                0x0020e380                rpl_get_parent
 .text.rpl_set_preferred_parent
                0x0020e390       0x24 contiki-cc2538dk.a(rpl-dag.o)
 .text.rpl_select_parent
                0x0020e3b4       0x64 contiki-cc2538dk.a(rpl-dag.o)
                0x0020e3b4                rpl_select_parent
 .text.rpl_alloc_instance
                0x0020e418       0x40 contiki-cc2538dk.a(rpl-dag.o)
                0x0020e418                rpl_alloc_instance
 .text.rpl_alloc_dag
                0x0020e458       0x50 contiki-cc2538dk.a(rpl-dag.o)
                0x0020e458                rpl_alloc_dag
 .text.set_ip_from_prefix
                0x0020e4a8       0x2c contiki-cc2538dk.a(rpl-dag.o)
 .text.check_prefix
                0x0020e4d4       0x58 contiki-cc2538dk.a(rpl-dag.o)
 .text.rpl_set_prefix
                0x0020e52c       0x70 contiki-cc2538dk.a(rpl-dag.o)
                0x0020e52c                rpl_set_prefix
 .text.rpl_set_default_route
                0x0020e59c       0x40 contiki-cc2538dk.a(rpl-dag.o)
                0x0020e59c                rpl_set_default_route
 .text.rpl_nullify_parent
                0x0020e5dc       0x44 contiki-cc2538dk.a(rpl-dag.o)
                0x0020e5dc                rpl_nullify_parent
 .text.rpl_local_repair
                0x0020e620       0x58 contiki-cc2538dk.a(rpl-dag.o)
                0x0020e620                rpl_local_repair
 .text.rpl_remove_parent
                0x0020e678       0x18 contiki-cc2538dk.a(rpl-dag.o)
                0x0020e678                rpl_remove_parent
 .text.remove_parents
                0x0020e690       0x34 contiki-cc2538dk.a(rpl-dag.o)
 .text.nbr_callback
                0x0020e6c4        0x8 contiki-cc2538dk.a(rpl-dag.o)
 .text.rpl_free_dag
                0x0020e6cc       0x34 contiki-cc2538dk.a(rpl-dag.o)
                0x0020e6cc                rpl_free_dag
 .text.rpl_set_root
                0x0020e700      0x140 contiki-cc2538dk.a(rpl-dag.o)
                0x0020e700                rpl_set_root
 .text.rpl_add_parent
                0x0020e840       0x34 contiki-cc2538dk.a(rpl-dag.o)
                0x0020e840                rpl_add_parent
 .text.rpl_join_instance
                0x0020e874      0x114 contiki-cc2538dk.a(rpl-dag.o)
                0x0020e874                rpl_join_instance
 .text.rpl_get_parent_ipaddr
                0x0020e988       0x14 contiki-cc2538dk.a(rpl-dag.o)
                0x0020e988                rpl_get_parent_ipaddr
 .text.rpl_move_parent
                0x0020e99c       0x48 contiki-cc2538dk.a(rpl-dag.o)
                0x0020e99c                rpl_move_parent
 .text.rpl_select_dag
                0x0020e9e4      0x144 contiki-cc2538dk.a(rpl-dag.o)
                0x0020e9e4                rpl_select_dag
 .text.rpl_process_parent_event
                0x0020eb28       0x3c contiki-cc2538dk.a(rpl-dag.o)
                0x0020eb28                rpl_process_parent_event
 .text.rpl_recalculate_ranks
                0x0020eb64       0x80 contiki-cc2538dk.a(rpl-dag.o)
                0x0020eb64                rpl_recalculate_ranks
 .text.rpl_add_dag
                0x0020ebe4      0x118 contiki-cc2538dk.a(rpl-dag.o)
                0x0020ebe4                rpl_add_dag
 .text.rpl_process_dio
                0x0020ecfc      0x2a8 contiki-cc2538dk.a(rpl-dag.o)
                0x0020ecfc                rpl_process_dio
 .text.rpl_dag_init
                0x0020efa4       0x14 contiki-cc2538dk.a(rpl-dag.o)
                0x0020efa4                rpl_dag_init
 .text.rpl_invert_header
                0x0020efb8       0x78 contiki-cc2538dk.a(rpl-ext-header.)
                0x0020efb8                rpl_invert_header
 .text.rpl_remove_header
                0x0020f030       0x60 contiki-cc2538dk.a(rpl-ext-header.)
                0x0020f030                rpl_remove_header
 .text.rpl_update_header_final
                0x0020f090       0x90 contiki-cc2538dk.a(rpl-ext-header.)
                0x0020f090                rpl_update_header_final
 .text.rpl_update_header_empty
                0x0020f120      0x168 contiki-cc2538dk.a(rpl-ext-header.)
                0x0020f120                rpl_update_header_empty
 .text.rpl_insert_header
                0x0020f288       0x20 contiki-cc2538dk.a(rpl-ext-header.)
                0x0020f288                rpl_insert_header
 .text.rpl_verify_header
                0x0020f2a8       0xa8 contiki-cc2538dk.a(rpl-ext-header.)
                0x0020f2a8                rpl_verify_header
 .text.get32    0x0020f350       0x1c contiki-cc2538dk.a(rpl-icmp6.o)
 .text.set32    0x0020f36c       0x18 contiki-cc2538dk.a(rpl-icmp6.o)
 .text.get16    0x0020f384        0xc contiki-cc2538dk.a(rpl-icmp6.o)
 .text.set16    0x0020f390        0xc contiki-cc2538dk.a(rpl-icmp6.o)
 .text.dao_ack_input
                0x0020f39c       0x10 contiki-cc2538dk.a(rpl-icmp6.o)
 .text.rpl_icmp6_register_handlers
                0x0020f3ac       0x2c contiki-cc2538dk.a(rpl-icmp6.o)
                0x0020f3ac                rpl_icmp6_register_handlers
 .text.dao_ack_output
                0x0020f3d8       0x30 contiki-cc2538dk.a(rpl-icmp6.o)
                0x0020f3d8                dao_ack_output
 .text.dio_output
                0x0020f408      0x20c contiki-cc2538dk.a(rpl-icmp6.o)
                0x0020f408                dio_output
 .text.dis_output
                0x0020f614       0x58 contiki-cc2538dk.a(rpl-icmp6.o)
                0x0020f614                dis_output
 .text.dao_input
                0x0020f66c      0x244 contiki-cc2538dk.a(rpl-icmp6.o)
 .text.dio_input
                0x0020f8b0      0x25c contiki-cc2538dk.a(rpl-icmp6.o)
 .text.dis_input
                0x0020fb0c       0x4c contiki-cc2538dk.a(rpl-icmp6.o)
 .text.dao_output_target
                0x0020fb58       0xc4 contiki-cc2538dk.a(rpl-icmp6.o)
                0x0020fb58                dao_output_target
 .text.dao_output
                0x0020fc1c       0x50 contiki-cc2538dk.a(rpl-icmp6.o)
                0x0020fc1c                dao_output
 .text.calculate_path_metric
                0x0020fc6c       0x14 contiki-cc2538dk.a(rpl-mrhof.o)
 .text.reset    0x0020fc80        0x4 contiki-cc2538dk.a(rpl-mrhof.o)
 .text.neighbor_link_callback
                0x0020fc84       0x3c contiki-cc2538dk.a(rpl-mrhof.o)
 .text.calculate_rank
                0x0020fcc0       0x28 contiki-cc2538dk.a(rpl-mrhof.o)
 .text.best_dag
                0x0020fce8       0x24 contiki-cc2538dk.a(rpl-mrhof.o)
 .text.best_parent
                0x0020fd0c       0x40 contiki-cc2538dk.a(rpl-mrhof.o)
 .text.update_metric_container
                0x0020fd4c        0x8 contiki-cc2538dk.a(rpl-mrhof.o)
 .text.set_dao_lifetime_timer
                0x0020fd54       0x38 contiki-cc2538dk.a(rpl-timers.o)
 .text.schedule_dao
                0x0020fd8c       0x50 contiki-cc2538dk.a(rpl-timers.o)
 .text.rpl_schedule_dao
                0x0020fddc        0xc contiki-cc2538dk.a(rpl-timers.o)
                0x0020fddc                rpl_schedule_dao
 .text.new_dio_interval
                0x0020fde8       0x58 contiki-cc2538dk.a(rpl-timers.o)
 .text.rpl_reset_dio_timer
                0x0020fe40       0x20 contiki-cc2538dk.a(rpl-timers.o)
                0x0020fe40                rpl_reset_dio_timer
 .text.rpl_reset_periodic_timer
                0x0020fe60       0x34 contiki-cc2538dk.a(rpl-timers.o)
                0x0020fe60                rpl_reset_periodic_timer
 .text.handle_dao_timer
                0x0020fe94       0x54 contiki-cc2538dk.a(rpl-timers.o)
 .text.handle_dio_timer
                0x0020fee8       0x7c contiki-cc2538dk.a(rpl-timers.o)
 .text.handle_periodic_timer
                0x0020ff64       0x38 contiki-cc2538dk.a(rpl-timers.o)
 .text.on       0x0020ff9c       0x28 contiki-cc2538dk.a(contikimac.o)
 .text.off      0x0020ffc4       0x30 contiki-cc2538dk.a(contikimac.o)
 .text.powercycle_turn_radio_off
                0x0020fff4       0x1c contiki-cc2538dk.a(contikimac.o)
 .text.recv_burst_off
                0x00210010       0x14 contiki-cc2538dk.a(contikimac.o)
 .text.turn_off
                0x00210024       0x34 contiki-cc2538dk.a(contikimac.o)
 .text.duty_cycle
                0x00210058        0x4 contiki-cc2538dk.a(contikimac.o)
 .text.turn_on  0x0021005c       0x3c contiki-cc2538dk.a(contikimac.o)
 .text.schedule_powercycle_fixed
                0x00210098       0x38 contiki-cc2538dk.a(contikimac.o)
 .text.powercycle
                0x002100d0      0x208 contiki-cc2538dk.a(contikimac.o)
 .text.init     0x002102d8       0x3c contiki-cc2538dk.a(contikimac.o)
 .text.input_packet
                0x00210314       0x9c contiki-cc2538dk.a(contikimac.o)
 .text.send_packet
                0x002103b0      0x218 contiki-cc2538dk.a(contikimac.o)
 .text.qsend_list
                0x002105c8       0x74 contiki-cc2538dk.a(contikimac.o)
 .text.qsend_packet
                0x0021063c       0x20 contiki-cc2538dk.a(contikimac.o)
 .text.show_leds
                0x0021065c       0x1c contiki-cc2538dk.a(leds.o)
 .text.leds_off
                0x00210678       0x1c contiki-cc2538dk.a(leds.o)
                0x00210678                leds_off
 .text.leds_on  0x00210694       0x1c contiki-cc2538dk.a(leds.o)
                0x00210694                leds_on
 .text.leds_init
                0x002106b0       0x1c contiki-cc2538dk.a(leds.o)
                0x002106b0                leds_init
 .text.leds_arch_init
                0x002106cc       0x10 contiki-cc2538dk.a(leds-arch.o)
                0x002106cc                leds_arch_init
 .text.leds_arch_set
                0x002106dc        0xc contiki-cc2538dk.a(leds-arch.o)
                0x002106dc                leds_arch_set
 .text.addr_len
                0x002106e8       0x10 contiki-cc2538dk.a(frame802154.o)
 .text.frame802154_parse
                0x002106f8      0x12c contiki-cc2538dk.a(frame802154.o)
                0x002106f8                frame802154_parse
 .text.field_len
                0x00210824       0x68 contiki-cc2538dk.a(frame802154.o)
 .text.frame802154_create
                0x0021088c      0x100 contiki-cc2538dk.a(frame802154.o)
                0x0021088c                frame802154_create
 .text.frame802154_hdrlen
                0x0021098c       0x2c contiki-cc2538dk.a(frame802154.o)
                0x0021098c                frame802154_hdrlen
 .text.mac_sequence_is_duplicate
                0x002109b8       0x38 contiki-cc2538dk.a(mac-sequence.o)
                0x002109b8                mac_sequence_is_duplicate
 .text.mac_sequence_register_seqno
                0x002109f0       0x64 contiki-cc2538dk.a(mac-sequence.o)
                0x002109f0                mac_sequence_register_seqno
 .text          0x00210a54       0x2c /home/user/CodeSourcery/Sourcery_G++_Lite/bin/../lib/gcc/arm-none-eabi/4.3.2/thumb2/libgcc.a(_aeabi_uldivmod.o)
                0x00210a54                __aeabi_uldivmod
 .text          0x00210a80       0x60 /home/user/CodeSourcery/Sourcery_G++_Lite/bin/../lib/gcc/arm-none-eabi/4.3.2/thumb2/libgcc.a(bpabi.o)
                0x00210a80                __gnu_uldivmod_helper
                0x00210ab0                __gnu_ldivmod_helper
 .text          0x00210ae0        0x4 /home/user/CodeSourcery/Sourcery_G++_Lite/bin/../lib/gcc/arm-none-eabi/4.3.2/thumb2/libgcc.a(_dvmd_tls.o)
                0x00210ae0                __aeabi_ldiv0
                0x00210ae0                __aeabi_idiv0
 .text          0x00210ae4      0x424 /home/user/CodeSourcery/Sourcery_G++_Lite/bin/../lib/gcc/arm-none-eabi/4.3.2/thumb2/libgcc.a(_divdi3.o)
                0x00210ae4                __divdi3
 .text          0x00210f08      0x3e4 /home/user/CodeSourcery/Sourcery_G++_Lite/bin/../lib/gcc/arm-none-eabi/4.3.2/thumb2/libgcc.a(_udivdi3.o)
                0x00210f08                __udivdi3
 .text          0x002112ec       0x8c /home/user/CodeSourcery/Sourcery_G++_Lite/bin/../lib/gcc/arm-none-eabi/4.3.2/thumb2/libgcc.a(_udivsi3.o)
                0x002112ec                __udivsi3
                0x002112ec                __aeabi_uidiv
                0x00211364                __aeabi_uidivmod
 .text          0x00211378       0x18 /home/user/CodeSourcery/Sourcery_G++_Lite/bin/../lib/gcc/arm-none-eabi/4.3.2/../../../../arm-none-eabi/lib/thumb2/libc.a(lib_a-atoi.o)
                0x00211378                _atoi_r
                0x00211384                atoi
 .text          0x00211390        0x8 /home/user/CodeSourcery/Sourcery_G++_Lite/bin/../lib/gcc/arm-none-eabi/4.3.2/../../../../arm-none-eabi/lib/thumb2/libc.a(lib_a-index.o)
                0x00211390                index
 .text          0x00211398       0x80 /home/user/CodeSourcery/Sourcery_G++_Lite/bin/../lib/gcc/arm-none-eabi/4.3.2/../../../../arm-none-eabi/lib/thumb2/libc.a(lib_a-memchr.o)
                0x00211398                memchr
 .text          0x00211418       0x60 /home/user/CodeSourcery/Sourcery_G++_Lite/bin/../lib/gcc/arm-none-eabi/4.3.2/../../../../arm-none-eabi/lib/thumb2/libc.a(lib_a-memcmp.o)
                0x00211418                memcmp
 .text          0x00211478       0x98 /home/user/CodeSourcery/Sourcery_G++_Lite/bin/../lib/gcc/arm-none-eabi/4.3.2/../../../../arm-none-eabi/lib/thumb2/libc.a(lib_a-memcpy.o)
                0x00211478                memcpy
 .text          0x00211510       0xc0 /home/user/CodeSourcery/Sourcery_G++_Lite/bin/../lib/gcc/arm-none-eabi/4.3.2/../../../../arm-none-eabi/lib/thumb2/libc.a(lib_a-memmove.o)
                0x00211510                memmove
 .text          0x002115d0       0x88 /home/user/CodeSourcery/Sourcery_G++_Lite/bin/../lib/gcc/arm-none-eabi/4.3.2/../../../../arm-none-eabi/lib/thumb2/libc.a(lib_a-memset.o)
                0x002115d0                memset
 .text          0x00211658       0x68 /home/user/CodeSourcery/Sourcery_G++_Lite/bin/../lib/gcc/arm-none-eabi/4.3.2/../../../../arm-none-eabi/lib/thumb2/libc.a(lib_a-strchr.o)
                0x00211658                strchr
 .text          0x002116c0       0x50 /home/user/CodeSourcery/Sourcery_G++_Lite/bin/../lib/gcc/arm-none-eabi/4.3.2/../../../../arm-none-eabi/lib/thumb2/libc.a(lib_a-strcmp.o)
                0x002116c0                strcmp
 .text          0x00211710       0x44 /home/user/CodeSourcery/Sourcery_G++_Lite/bin/../lib/gcc/arm-none-eabi/4.3.2/../../../../arm-none-eabi/lib/thumb2/libc.a(lib_a-strcpy.o)
                0x00211710                strcpy
 .text          0x00211754       0x34 /home/user/CodeSourcery/Sourcery_G++_Lite/bin/../lib/gcc/arm-none-eabi/4.3.2/../../../../arm-none-eabi/lib/thumb2/libc.a(lib_a-strlen.o)
                0x00211754                strlen
 .text          0x00211788       0x88 /home/user/CodeSourcery/Sourcery_G++_Lite/bin/../lib/gcc/arm-none-eabi/4.3.2/../../../../arm-none-eabi/lib/thumb2/libc.a(lib_a-strncmp.o)
                0x00211788                strncmp
 .text          0x00211810       0x84 /home/user/CodeSourcery/Sourcery_G++_Lite/bin/../lib/gcc/arm-none-eabi/4.3.2/../../../../arm-none-eabi/lib/thumb2/libc.a(lib_a-strncpy.o)
                0x00211810                strncpy
 .text          0x00211894      0x570 /home/user/CodeSourcery/Sourcery_G++_Lite/bin/../lib/gcc/arm-none-eabi/4.3.2/../../../../arm-none-eabi/lib/thumb2/libc.a(lib_a-strstr.o)
                0x00211bc4                strstr
 .text          0x00211e04      0x16c /home/user/CodeSourcery/Sourcery_G++_Lite/bin/../lib/gcc/arm-none-eabi/4.3.2/../../../../arm-none-eabi/lib/thumb2/libc.a(lib_a-strtol.o)
                0x00211f54                strtol
                0x00211e04                _strtol_r
 *(SORT(.rodata*))
 .rodata.autostart_processes
                0x00211f70        0x8 cetic-6lbr.co
                0x00211f70                autostart_processes
 .rodata.BOTTOM
                0x00211f78        0x4 obj_cc2538dk/webserver.o
 .rodata.BODY   0x00211f7c        0x4 obj_cc2538dk/webserver.o
 .rodata.TOP    0x00211f80        0x4 obj_cc2538dk/webserver.o
 .rodata.NOT_FOUND
                0x00211f84        0x4 obj_cc2538dk/httpd-simple.o
 .rodata.coap_rest_implementation
                0x00211f88      0x118 contiki-cc2538dk.a(er-coap-13-engi)
                0x00211f88                coap_rest_implementation
 .rodata.button_select_sensor
                0x002120a0       0x10 contiki-cc2538dk.a(button-sensor.o)
                0x002120a0                button_select_sensor
 .rodata.button_up_sensor
                0x002120b0       0x10 contiki-cc2538dk.a(button-sensor.o)
                0x002120b0                button_up_sensor
 .rodata.button_left_sensor
                0x002120c0       0x10 contiki-cc2538dk.a(button-sensor.o)
                0x002120c0                button_left_sensor
 .rodata.button_right_sensor
                0x002120d0       0x10 contiki-cc2538dk.a(button-sensor.o)
                0x002120d0                button_right_sensor
 .rodata.button_down_sensor
                0x002120e0       0x10 contiki-cc2538dk.a(button-sensor.o)
                0x002120e0                button_down_sensor
 .rodata.adc_sensor
                0x002120f0       0x10 contiki-cc2538dk.a(adc-sensor.o)
                0x002120f0                adc_sensor
 .rodata.uart_regs
                0x00212100       0x58 contiki-cc2538dk.a(uart.o)
 .rodata.cc2538_rf_driver
                0x00212158       0x28 contiki-cc2538dk.a(cc2538-rf.o)
                0x00212158                cc2538_rf_driver
 .rodata.packetbuf
                0x00212180        0x4 contiki-cc2538dk.a(packetbuf.o)
 .rodata.sicslowpan_driver
                0x00212184        0xc contiki-cc2538dk.a(sicslowpan.o)
                0x00212184                sicslowpan_driver
 .rodata.csma_driver
                0x00212190       0x1c contiki-cc2538dk.a(csma.o)
                0x00212190                csma_driver
 .rodata.framer_802154
                0x002121ac        0x8 contiki-cc2538dk.a(framer-802154.o)
                0x002121ac                framer_802154
 .rodata.contikimac_driver
                0x002121b4       0x20 contiki-cc2538dk.a(contikimac.o)
                0x002121b4                contikimac_driver
 .rodata.str1.4
                0x002121d4        0x4 /home/user/CodeSourcery/Sourcery_G++_Lite/bin/../lib/gcc/arm-none-eabi/4.3.2/../../../../arm-none-eabi/lib/thumb2/libc.a(lib_a-impure.o)
 .rodata.str1.1
                0x002121d8      0x129 cetic-6lbr.co
 .rodata.str1.1
                0x00212301     0x21b0 obj_cc2538dk/webserver.o
                               0x2202 (size before relaxing)
 .rodata.http_header_404
                0x002144b1       0x5d obj_cc2538dk/httpd-simple.o
                0x002144b1                http_header_404
 .rodata.http_header_200
                0x0021450e       0x56 obj_cc2538dk/httpd-simple.o
                0x0021450e                http_header_200
 .rodata.str1.1
                0x00214564       0x82 obj_cc2538dk/httpd-simple.o
 .rodata.http_content_type_html
                0x002145e6       0x1c obj_cc2538dk/httpd-simple.o
                0x002145e6                http_content_type_html
 .rodata.http_get
                0x00214602        0x5 obj_cc2538dk/httpd-simple.o
                0x00214602                http_get
 .rodata.str1.1
                0x00214607       0x4f obj_cc2538dk/udp-server.o
 .rodata.str1.1
                0x00214656       0x45 obj_cc2538dk/udp-client.o
                                 0x4a (size before relaxing)
 .rodata.str1.1
                0x0021469b        0xc obj_cc2538dk/coap-server.o
 .rodata.str1.1
                0x002146a7       0x3e obj_cc2538dk/log-6lbr.o
 .rodata.str1.1
                0x002146e5       0x9a obj_cc2538dk/rio.o
 .rodata.str1.1
                0x0021477f      0x10b obj_cc2538dk/packet-filter.o
 .rodata.str1.1
                0x0021488a       0x5a obj_cc2538dk/sicslow-ethernet.o
 .rodata.str1.1
                0x002148e4       0xab obj_cc2538dk/nvm-config.o
 .rodata.str1.1
                0x0021498f       0x20 obj_cc2538dk/cc2538dk-init.o
 .rodata.str1.1
                0x002149af       0x8c obj_cc2538dk/cc2538dk-nvm.o
                                 0xa5 (size before relaxing)
 .rodata.str1.1
                0x00214a3b       0x2d obj_cc2538dk/enc28j60.o
 .rodata.str1.1
                0x00214a68       0x44 obj_cc2538dk/enc28j60-drv.o
 .rodata.str1.1
                0x00214aac       0x89 contiki-cc2538dk.a(er-coap-13.o)
                                 0x8a (size before relaxing)
 .rodata.str1.1
                0x00214b35       0x73 contiki-cc2538dk.a(er-coap-13-engi)
                                 0x76 (size before relaxing)
 .rodata.str1.1
                0x00214ba8       0x1d contiki-cc2538dk.a(er-coap-13-obse)
 .rodata.str1.1
                0x00214bc5        0xd contiki-cc2538dk.a(erbium.o)
 .rodata.str1.1
                0x00214bd2       0x78 contiki-cc2538dk.a(contiki-main.o)
                                 0x80 (size before relaxing)
 .rodata.str1.1
                0x00000000        0x8 contiki-cc2538dk.a(sensors.o)
 .rodata.str1.1
                0x00214c4a        0x7 contiki-cc2538dk.a(button-sensor.o)
 .rodata.str1.1
                0x00214c51        0x4 contiki-cc2538dk.a(adc-sensor.o)
 .rodata.str1.1
                0x00214c55       0x11 contiki-cc2538dk.a(cc2538-rf.o)
 .rodata.buffer.1352
                0x00214c66       0x10 contiki-cc2538dk.a(strformat.o)
 .rodata.str1.1
                0x00214c76       0x2c contiki-cc2538dk.a(strformat.o)
                                 0x37 (size before relaxing)
 .rodata.buffer.1366
                0x00214ca2       0x10 contiki-cc2538dk.a(strformat.o)
 .rodata.str1.1
                0x00214cb2        0xf contiki-cc2538dk.a(ctimer.o)
 .rodata.str1.1
                0x00214cc1        0xc contiki-cc2538dk.a(etimer.o)
 .rodata.str1.1
                0x00214ccd        0xe contiki-cc2538dk.a(serial-line.o)
 .rodata.linkaddr_null
                0x00214cdb        0x8 contiki-cc2538dk.a(linkaddr.o)
                0x00214cdb                linkaddr_null
 .rodata.ttl_values
                0x00214ce3        0x4 contiki-cc2538dk.a(sicslowpan.o)
 .rodata.unc_llconf
                0x00214ce7        0x4 contiki-cc2538dk.a(sicslowpan.o)
                0x00214ce7                unc_llconf
 .rodata.llprefix
                0x00214ceb        0x2 contiki-cc2538dk.a(sicslowpan.o)
                0x00214ceb                llprefix
 .rodata.unc_mxconf
                0x00214ced        0x4 contiki-cc2538dk.a(sicslowpan.o)
                0x00214ced                unc_mxconf
 .rodata.str1.1
                0x00214cf1        0xb contiki-cc2538dk.a(sicslowpan.o)
 .rodata.unc_ctxconf
                0x00214cfc        0x4 contiki-cc2538dk.a(sicslowpan.o)
                0x00214cfc                unc_ctxconf
 .rodata.C.44.4642
                0x00214d00        0x2 contiki-cc2538dk.a(sicslowpan.o)
 .rodata.str1.1
                0x00214d02        0x5 contiki-cc2538dk.a(csma.o)
 .rodata.str1.1
                0x00214d07        0xd contiki-cc2538dk.a(tcpip.o)
 .rodata.str1.1
                0x00214d14        0xf contiki-cc2538dk.a(uip-debug.o)
                                 0x1a (size before relaxing)
 .rodata.str1.1
                0x00214d23        0xb contiki-cc2538dk.a(contikimac.o)
 .rodata        0x00214d2e      0x100 /home/user/CodeSourcery/Sourcery_G++_Lite/bin/../lib/gcc/arm-none-eabi/4.3.2/thumb2/libgcc.a(_clz.o)
                0x00214d2e                __clz_tab
 .rodata        0x00214e2e      0x101 /home/user/CodeSourcery/Sourcery_G++_Lite/bin/../lib/gcc/arm-none-eabi/4.3.2/../../../../arm-none-eabi/lib/thumb2/libc.a(lib_a-ctype_.o)
                0x00214e2e                _ctype_
                0x00214f2f                _etext = .

.glue_7         0x00214f30        0x0 load address 0x00214f2f
 .glue_7        0x00214f30        0x0 obj_cc2538dk/startup-gcc.o
 .glue_7        0x00214f30        0x0 cetic-6lbr.co
 .glue_7        0x00214f30        0x0 obj_cc2538dk/webserver.o
 .glue_7        0x00214f30        0x0 obj_cc2538dk/httpd-simple.o
 .glue_7        0x00214f30        0x0 obj_cc2538dk/udp-server.o
 .glue_7        0x00214f30        0x0 obj_cc2538dk/udp-client.o
 .glue_7        0x00214f30        0x0 obj_cc2538dk/node-info.o
 .glue_7        0x00214f30        0x0 obj_cc2538dk/coap-server.o
 .glue_7        0x00214f30        0x0 obj_cc2538dk/block-transfer.o
 .glue_7        0x00214f30        0x0 obj_cc2538dk/log-6lbr.o
 .glue_7        0x00214f30        0x0 obj_cc2538dk/rio.o
 .glue_7        0x00214f30        0x0 obj_cc2538dk/packet-filter.o
 .glue_7        0x00214f30        0x0 obj_cc2538dk/sicslow-ethernet.o
 .glue_7        0x00214f30        0x0 obj_cc2538dk/nvm-config.o
 .glue_7        0x00214f30        0x0 obj_cc2538dk/cc2538dk-init.o
 .glue_7        0x00214f30        0x0 obj_cc2538dk/cc2538dk-nvm.o
 .glue_7        0x00214f30        0x0 obj_cc2538dk/enc28j60.o
 .glue_7        0x00214f30        0x0 obj_cc2538dk/enc28j60-drv.o
 .glue_7        0x00214f30        0x0 obj_cc2538dk/enc28j60-arch-spi.o
 .glue_7        0x00214f30        0x0 contiki-cc2538dk.a(er-coap-13.o)
 .glue_7        0x00214f30        0x0 contiki-cc2538dk.a(er-coap-13-engi)
 .glue_7        0x00214f30        0x0 contiki-cc2538dk.a(er-coap-13-tran)
 .glue_7        0x00214f30        0x0 contiki-cc2538dk.a(er-coap-13-obse)
 .glue_7        0x00214f30        0x0 contiki-cc2538dk.a(er-coap-13-udp.)
 .glue_7        0x00214f30        0x0 contiki-cc2538dk.a(erbium.o)
 .glue_7        0x00214f30        0x0 contiki-cc2538dk.a(contiki-main.o)
 .glue_7        0x00214f30        0x0 contiki-cc2538dk.a(sensors.o)
 .glue_7        0x00214f30        0x0 contiki-cc2538dk.a(smartrf-sensors)
 .glue_7        0x00214f30        0x0 contiki-cc2538dk.a(button-sensor.o)
 .glue_7        0x00214f30        0x0 contiki-cc2538dk.a(adc-sensor.o)
 .glue_7        0x00214f30        0x0 contiki-cc2538dk.a(clock.o)
 .glue_7        0x00214f30        0x0 contiki-cc2538dk.a(rtimer-arch.o)
 .glue_7        0x00214f30        0x0 contiki-cc2538dk.a(uart.o)
 .glue_7        0x00214f30        0x0 contiki-cc2538dk.a(watchdog.o)
 .glue_7        0x00214f30        0x0 contiki-cc2538dk.a(nvic.o)
 .glue_7        0x00214f30        0x0 contiki-cc2538dk.a(cpu.o)
 .glue_7        0x00214f30        0x0 contiki-cc2538dk.a(sys-ctrl.o)
 .glue_7        0x00214f30        0x0 contiki-cc2538dk.a(gpio.o)
 .glue_7        0x00214f30        0x0 contiki-cc2538dk.a(ioc.o)
 .glue_7        0x00214f30        0x0 contiki-cc2538dk.a(spi.o)
 .glue_7        0x00214f30        0x0 contiki-cc2538dk.a(adc.o)
 .glue_7        0x00214f30        0x0 contiki-cc2538dk.a(cc2538-rf.o)
 .glue_7        0x00214f30        0x0 contiki-cc2538dk.a(udma.o)
 .glue_7        0x00214f30        0x0 contiki-cc2538dk.a(lpm.o)
 .glue_7        0x00214f30        0x0 contiki-cc2538dk.a(dbg.o)
 .glue_7        0x00214f30        0x0 contiki-cc2538dk.a(ieee-addr.o)
 .glue_7        0x00214f30        0x0 contiki-cc2538dk.a(dbg-printf.o)
 .glue_7        0x00214f30        0x0 contiki-cc2538dk.a(dbg-snprintf.o)
 .glue_7        0x00214f30        0x0 contiki-cc2538dk.a(dbg-sprintf.o)
 .glue_7        0x00214f30        0x0 contiki-cc2538dk.a(strformat.o)
 .glue_7        0x00214f30        0x0 contiki-cc2538dk.a(autostart.o)
 .glue_7        0x00214f30        0x0 contiki-cc2538dk.a(ctimer.o)
 .glue_7        0x00214f30        0x0 contiki-cc2538dk.a(energest.o)
 .glue_7        0x00214f30        0x0 contiki-cc2538dk.a(etimer.o)
 .glue_7        0x00214f30        0x0 contiki-cc2538dk.a(process.o)
 .glue_7        0x00214f30        0x0 contiki-cc2538dk.a(rtimer.o)
 .glue_7        0x00214f30        0x0 contiki-cc2538dk.a(stimer.o)
 .glue_7        0x00214f30        0x0 contiki-cc2538dk.a(timer.o)
 .glue_7        0x00214f30        0x0 contiki-cc2538dk.a(serial-line.o)
 .glue_7        0x00214f30        0x0 contiki-cc2538dk.a(list.o)
 .glue_7        0x00214f30        0x0 contiki-cc2538dk.a(memb.o)
 .glue_7        0x00214f30        0x0 contiki-cc2538dk.a(random.o)
 .glue_7        0x00214f30        0x0 contiki-cc2538dk.a(ringbuf.o)
 .glue_7        0x00214f30        0x0 contiki-cc2538dk.a(linkaddr.o)
 .glue_7        0x00214f30        0x0 contiki-cc2538dk.a(nbr-table.o)
 .glue_7        0x00214f30        0x0 contiki-cc2538dk.a(netstack.o)
 .glue_7        0x00214f30        0x0 contiki-cc2538dk.a(packetbuf.o)
 .glue_7        0x00214f30        0x0 contiki-cc2538dk.a(queuebuf.o)
 .glue_7        0x00214f30        0x0 contiki-cc2538dk.a(sicslowpan.o)
 .glue_7        0x00214f30        0x0 contiki-cc2538dk.a(uip6.o)
 .glue_7        0x00214f30        0x0 contiki-cc2538dk.a(uip-ds6.o)
 .glue_7        0x00214f30        0x0 contiki-cc2538dk.a(uip-ds6-nbr.o)
 .glue_7        0x00214f30        0x0 contiki-cc2538dk.a(uip-ds6-route.o)
 .glue_7        0x00214f30        0x0 contiki-cc2538dk.a(uip-icmp6.o)
 .glue_7        0x00214f30        0x0 contiki-cc2538dk.a(uip-nd6.o)
 .glue_7        0x00214f30        0x0 contiki-cc2538dk.a(csma.o)
 .glue_7        0x00214f30        0x0 contiki-cc2538dk.a(framer-802154.o)
 .glue_7        0x00214f30        0x0 contiki-cc2538dk.a(mac.o)
 .glue_7        0x00214f30        0x0 contiki-cc2538dk.a(psock.o)
 .glue_7        0x00214f30        0x0 contiki-cc2538dk.a(tcpip.o)
 .glue_7        0x00214f30        0x0 contiki-cc2538dk.a(uip-debug.o)
 .glue_7        0x00214f30        0x0 contiki-cc2538dk.a(uiplib.o)
 .glue_7        0x00214f30        0x0 contiki-cc2538dk.a(uip-udp-packet.)
 .glue_7        0x00214f30        0x0 contiki-cc2538dk.a(rpl.o)
 .glue_7        0x00214f30        0x0 contiki-cc2538dk.a(rpl-dag.o)
 .glue_7        0x00214f30        0x0 contiki-cc2538dk.a(rpl-ext-header.)
 .glue_7        0x00214f30        0x0 contiki-cc2538dk.a(rpl-icmp6.o)
 .glue_7        0x00214f30        0x0 contiki-cc2538dk.a(rpl-mrhof.o)
 .glue_7        0x00214f30        0x0 contiki-cc2538dk.a(rpl-timers.o)
 .glue_7        0x00214f30        0x0 contiki-cc2538dk.a(contikimac.o)
 .glue_7        0x00214f30        0x0 contiki-cc2538dk.a(leds.o)
 .glue_7        0x00214f30        0x0 contiki-cc2538dk.a(leds-arch.o)
 .glue_7        0x00214f30        0x0 contiki-cc2538dk.a(frame802154.o)
 .glue_7        0x00214f30        0x0 contiki-cc2538dk.a(mac-sequence.o)
 .glue_7        0x00214f30        0x0 /home/user/CodeSourcery/Sourcery_G++_Lite/bin/../lib/gcc/arm-none-eabi/4.3.2/thumb2/libgcc.a(_aeabi_uldivmod.o)
 .glue_7        0x00214f30        0x0 /home/user/CodeSourcery/Sourcery_G++_Lite/bin/../lib/gcc/arm-none-eabi/4.3.2/thumb2/libgcc.a(bpabi.o)
 .glue_7        0x00214f30        0x0 /home/user/CodeSourcery/Sourcery_G++_Lite/bin/../lib/gcc/arm-none-eabi/4.3.2/thumb2/libgcc.a(_dvmd_tls.o)
 .glue_7        0x00214f30        0x0 /home/user/CodeSourcery/Sourcery_G++_Lite/bin/../lib/gcc/arm-none-eabi/4.3.2/thumb2/libgcc.a(_divdi3.o)
 .glue_7        0x00214f30        0x0 /home/user/CodeSourcery/Sourcery_G++_Lite/bin/../lib/gcc/arm-none-eabi/4.3.2/thumb2/libgcc.a(_udivdi3.o)
 .glue_7        0x00214f30        0x0 /home/user/CodeSourcery/Sourcery_G++_Lite/bin/../lib/gcc/arm-none-eabi/4.3.2/thumb2/libgcc.a(_udivsi3.o)
 .glue_7        0x00214f30        0x0 /home/user/CodeSourcery/Sourcery_G++_Lite/bin/../lib/gcc/arm-none-eabi/4.3.2/thumb2/libgcc.a(_clz.o)
 .glue_7        0x00214f30        0x0 /home/user/CodeSourcery/Sourcery_G++_Lite/bin/../lib/gcc/arm-none-eabi/4.3.2/../../../../arm-none-eabi/lib/thumb2/libc.a(lib_a-atoi.o)
 .glue_7        0x00214f30        0x0 /home/user/CodeSourcery/Sourcery_G++_Lite/bin/../lib/gcc/arm-none-eabi/4.3.2/../../../../arm-none-eabi/lib/thumb2/libc.a(lib_a-index.o)
 .glue_7        0x00214f30        0x0 /home/user/CodeSourcery/Sourcery_G++_Lite/bin/../lib/gcc/arm-none-eabi/4.3.2/../../../../arm-none-eabi/lib/thumb2/libc.a(lib_a-lcltime_r.o)
 .glue_7        0x00214f30        0x0 /home/user/CodeSourcery/Sourcery_G++_Lite/bin/../lib/gcc/arm-none-eabi/4.3.2/../../../../arm-none-eabi/lib/thumb2/libc.a(lib_a-memchr.o)
 .glue_7        0x00214f30        0x0 /home/user/CodeSourcery/Sourcery_G++_Lite/bin/../lib/gcc/arm-none-eabi/4.3.2/../../../../arm-none-eabi/lib/thumb2/libc.a(lib_a-memcmp.o)
 .glue_7        0x00214f30        0x0 /home/user/CodeSourcery/Sourcery_G++_Lite/bin/../lib/gcc/arm-none-eabi/4.3.2/../../../../arm-none-eabi/lib/thumb2/libc.a(lib_a-memcpy.o)
 .glue_7        0x00214f30        0x0 /home/user/CodeSourcery/Sourcery_G++_Lite/bin/../lib/gcc/arm-none-eabi/4.3.2/../../../../arm-none-eabi/lib/thumb2/libc.a(lib_a-memmove.o)
 .glue_7        0x00214f30        0x0 /home/user/CodeSourcery/Sourcery_G++_Lite/bin/../lib/gcc/arm-none-eabi/4.3.2/../../../../arm-none-eabi/lib/thumb2/libc.a(lib_a-memset.o)
 .glue_7        0x00214f30        0x0 /home/user/CodeSourcery/Sourcery_G++_Lite/bin/../lib/gcc/arm-none-eabi/4.3.2/../../../../arm-none-eabi/lib/thumb2/libc.a(lib_a-mktm_r.o)
 .glue_7        0x00214f30        0x0 /home/user/CodeSourcery/Sourcery_G++_Lite/bin/../lib/gcc/arm-none-eabi/4.3.2/../../../../arm-none-eabi/lib/thumb2/libc.a(lib_a-strchr.o)
 .glue_7        0x00214f30        0x0 /home/user/CodeSourcery/Sourcery_G++_Lite/bin/../lib/gcc/arm-none-eabi/4.3.2/../../../../arm-none-eabi/lib/thumb2/libc.a(lib_a-strcmp.o)
 .glue_7        0x00214f30        0x0 /home/user/CodeSourcery/Sourcery_G++_Lite/bin/../lib/gcc/arm-none-eabi/4.3.2/../../../../arm-none-eabi/lib/thumb2/libc.a(lib_a-strcpy.o)
 .glue_7        0x00214f30        0x0 /home/user/CodeSourcery/Sourcery_G++_Lite/bin/../lib/gcc/arm-none-eabi/4.3.2/../../../../arm-none-eabi/lib/thumb2/libc.a(lib_a-strlen.o)
 .glue_7        0x00214f30        0x0 /home/user/CodeSourcery/Sourcery_G++_Lite/bin/../lib/gcc/arm-none-eabi/4.3.2/../../../../arm-none-eabi/lib/thumb2/libc.a(lib_a-strncmp.o)
 .glue_7        0x00214f30        0x0 /home/user/CodeSourcery/Sourcery_G++_Lite/bin/../lib/gcc/arm-none-eabi/4.3.2/../../../../arm-none-eabi/lib/thumb2/libc.a(lib_a-strncpy.o)
 .glue_7        0x00214f30        0x0 /home/user/CodeSourcery/Sourcery_G++_Lite/bin/../lib/gcc/arm-none-eabi/4.3.2/../../../../arm-none-eabi/lib/thumb2/libc.a(lib_a-strstr.o)
 .glue_7        0x00214f30        0x0 /home/user/CodeSourcery/Sourcery_G++_Lite/bin/../lib/gcc/arm-none-eabi/4.3.2/../../../../arm-none-eabi/lib/thumb2/libc.a(lib_a-strtol.o)
 .glue_7        0x00214f30        0x0 /home/user/CodeSourcery/Sourcery_G++_Lite/bin/../lib/gcc/arm-none-eabi/4.3.2/../../../../arm-none-eabi/lib/thumb2/libc.a(lib_a-sysgettod.o)
 .glue_7        0x00214f30        0x0 /home/user/CodeSourcery/Sourcery_G++_Lite/bin/../lib/gcc/arm-none-eabi/4.3.2/../../../../arm-none-eabi/lib/thumb2/libc.a(lib_a-tzlock.o)
 .glue_7        0x00214f30        0x0 /home/user/CodeSourcery/Sourcery_G++_Lite/bin/../lib/gcc/arm-none-eabi/4.3.2/../../../../arm-none-eabi/lib/thumb2/libc.a(lib_a-tzvars.o)
 .glue_7        0x00214f30        0x0 /home/user/CodeSourcery/Sourcery_G++_Lite/bin/../lib/gcc/arm-none-eabi/4.3.2/../../../../arm-none-eabi/lib/thumb2/libc.a(lib_a-ctype_.o)
 .glue_7        0x00214f30        0x0 /home/user/CodeSourcery/Sourcery_G++_Lite/bin/../lib/gcc/arm-none-eabi/4.3.2/../../../../arm-none-eabi/lib/thumb2/libc.a(lib_a-gettimeofdayr.o)
 .glue_7        0x00214f30        0x0 /home/user/CodeSourcery/Sourcery_G++_Lite/bin/../lib/gcc/arm-none-eabi/4.3.2/../../../../arm-none-eabi/lib/thumb2/libc.a(lib_a-gettzinfo.o)
 .glue_7        0x00214f30        0x0 /home/user/CodeSourcery/Sourcery_G++_Lite/bin/../lib/gcc/arm-none-eabi/4.3.2/../../../../arm-none-eabi/lib/thumb2/libc.a(lib_a-impure.o)
 .glue_7        0x00214f30        0x0 /home/user/CodeSourcery/Sourcery_G++_Lite/bin/../lib/gcc/arm-none-eabi/4.3.2/../../../../arm-none-eabi/lib/thumb2/libc.a(lib_a-reent.o)
 .glue_7        0x00214f30        0x0 /home/user/CodeSourcery/Sourcery_G++_Lite/bin/../lib/gcc/arm-none-eabi/4.3.2/../../../../arm-none-eabi/lib/thumb2/libc.a(lib_a-freer.o)
 .glue_7        0x00214f30        0x0 /home/user/CodeSourcery/Sourcery_G++_Lite/bin/../lib/gcc/arm-none-eabi/4.3.2/../../../../arm-none-eabi/lib/thumb2/libc.a(lib_a-mallocr.o)
 .glue_7        0x00214f30        0x0 /home/user/CodeSourcery/Sourcery_G++_Lite/bin/../lib/gcc/arm-none-eabi/4.3.2/../../../../arm-none-eabi/lib/thumb2/libc.a(lib_a-mlock.o)
 .glue_7        0x00214f30        0x0 /home/user/CodeSourcery/Sourcery_G++_Lite/bin/../lib/gcc/arm-none-eabi/4.3.2/../../../../arm-none-eabi/lib/thumb2/libc.a(lib_a-sbrkr.o)

.glue_7t        0x00214f30        0x0 load address 0x00214f2f
 .glue_7t       0x00214f30        0x0 obj_cc2538dk/startup-gcc.o
 .glue_7t       0x00214f30        0x0 cetic-6lbr.co
 .glue_7t       0x00214f30        0x0 obj_cc2538dk/webserver.o
 .glue_7t       0x00214f30        0x0 obj_cc2538dk/httpd-simple.o
 .glue_7t       0x00214f30        0x0 obj_cc2538dk/udp-server.o
 .glue_7t       0x00214f30        0x0 obj_cc2538dk/udp-client.o
 .glue_7t       0x00214f30        0x0 obj_cc2538dk/node-info.o
 .glue_7t       0x00214f30        0x0 obj_cc2538dk/coap-server.o
 .glue_7t       0x00214f30        0x0 obj_cc2538dk/block-transfer.o
 .glue_7t       0x00214f30        0x0 obj_cc2538dk/log-6lbr.o
 .glue_7t       0x00214f30        0x0 obj_cc2538dk/rio.o
 .glue_7t       0x00214f30        0x0 obj_cc2538dk/packet-filter.o
 .glue_7t       0x00214f30        0x0 obj_cc2538dk/sicslow-ethernet.o
 .glue_7t       0x00214f30        0x0 obj_cc2538dk/nvm-config.o
 .glue_7t       0x00214f30        0x0 obj_cc2538dk/cc2538dk-init.o
 .glue_7t       0x00214f30        0x0 obj_cc2538dk/cc2538dk-nvm.o
 .glue_7t       0x00214f30        0x0 obj_cc2538dk/enc28j60.o
 .glue_7t       0x00214f30        0x0 obj_cc2538dk/enc28j60-drv.o
 .glue_7t       0x00214f30        0x0 obj_cc2538dk/enc28j60-arch-spi.o
 .glue_7t       0x00214f30        0x0 contiki-cc2538dk.a(er-coap-13.o)
 .glue_7t       0x00214f30        0x0 contiki-cc2538dk.a(er-coap-13-engi)
 .glue_7t       0x00214f30        0x0 contiki-cc2538dk.a(er-coap-13-tran)
 .glue_7t       0x00214f30        0x0 contiki-cc2538dk.a(er-coap-13-obse)
 .glue_7t       0x00214f30        0x0 contiki-cc2538dk.a(er-coap-13-udp.)
 .glue_7t       0x00214f30        0x0 contiki-cc2538dk.a(erbium.o)
 .glue_7t       0x00214f30        0x0 contiki-cc2538dk.a(contiki-main.o)
 .glue_7t       0x00214f30        0x0 contiki-cc2538dk.a(sensors.o)
 .glue_7t       0x00214f30        0x0 contiki-cc2538dk.a(smartrf-sensors)
 .glue_7t       0x00214f30        0x0 contiki-cc2538dk.a(button-sensor.o)
 .glue_7t       0x00214f30        0x0 contiki-cc2538dk.a(adc-sensor.o)
 .glue_7t       0x00214f30        0x0 contiki-cc2538dk.a(clock.o)
 .glue_7t       0x00214f30        0x0 contiki-cc2538dk.a(rtimer-arch.o)
 .glue_7t       0x00214f30        0x0 contiki-cc2538dk.a(uart.o)
 .glue_7t       0x00214f30        0x0 contiki-cc2538dk.a(watchdog.o)
 .glue_7t       0x00214f30        0x0 contiki-cc2538dk.a(nvic.o)
 .glue_7t       0x00214f30        0x0 contiki-cc2538dk.a(cpu.o)
 .glue_7t       0x00214f30        0x0 contiki-cc2538dk.a(sys-ctrl.o)
 .glue_7t       0x00214f30        0x0 contiki-cc2538dk.a(gpio.o)
 .glue_7t       0x00214f30        0x0 contiki-cc2538dk.a(ioc.o)
 .glue_7t       0x00214f30        0x0 contiki-cc2538dk.a(spi.o)
 .glue_7t       0x00214f30        0x0 contiki-cc2538dk.a(adc.o)
 .glue_7t       0x00214f30        0x0 contiki-cc2538dk.a(cc2538-rf.o)
 .glue_7t       0x00214f30        0x0 contiki-cc2538dk.a(udma.o)
 .glue_7t       0x00214f30        0x0 contiki-cc2538dk.a(lpm.o)
 .glue_7t       0x00214f30        0x0 contiki-cc2538dk.a(dbg.o)
 .glue_7t       0x00214f30        0x0 contiki-cc2538dk.a(ieee-addr.o)
 .glue_7t       0x00214f30        0x0 contiki-cc2538dk.a(dbg-printf.o)
 .glue_7t       0x00214f30        0x0 contiki-cc2538dk.a(dbg-snprintf.o)
 .glue_7t       0x00214f30        0x0 contiki-cc2538dk.a(dbg-sprintf.o)
 .glue_7t       0x00214f30        0x0 contiki-cc2538dk.a(strformat.o)
 .glue_7t       0x00214f30        0x0 contiki-cc2538dk.a(autostart.o)
 .glue_7t       0x00214f30        0x0 contiki-cc2538dk.a(ctimer.o)
 .glue_7t       0x00214f30        0x0 contiki-cc2538dk.a(energest.o)
 .glue_7t       0x00214f30        0x0 contiki-cc2538dk.a(etimer.o)
 .glue_7t       0x00214f30        0x0 contiki-cc2538dk.a(process.o)
 .glue_7t       0x00214f30        0x0 contiki-cc2538dk.a(rtimer.o)
 .glue_7t       0x00214f30        0x0 contiki-cc2538dk.a(stimer.o)
 .glue_7t       0x00214f30        0x0 contiki-cc2538dk.a(timer.o)
 .glue_7t       0x00214f30        0x0 contiki-cc2538dk.a(serial-line.o)
 .glue_7t       0x00214f30        0x0 contiki-cc2538dk.a(list.o)
 .glue_7t       0x00214f30        0x0 contiki-cc2538dk.a(memb.o)
 .glue_7t       0x00214f30        0x0 contiki-cc2538dk.a(random.o)
 .glue_7t       0x00214f30        0x0 contiki-cc2538dk.a(ringbuf.o)
 .glue_7t       0x00214f30        0x0 contiki-cc2538dk.a(linkaddr.o)
 .glue_7t       0x00214f30        0x0 contiki-cc2538dk.a(nbr-table.o)
 .glue_7t       0x00214f30        0x0 contiki-cc2538dk.a(netstack.o)
 .glue_7t       0x00214f30        0x0 contiki-cc2538dk.a(packetbuf.o)
 .glue_7t       0x00214f30        0x0 contiki-cc2538dk.a(queuebuf.o)
 .glue_7t       0x00214f30        0x0 contiki-cc2538dk.a(sicslowpan.o)
 .glue_7t       0x00214f30        0x0 contiki-cc2538dk.a(uip6.o)
 .glue_7t       0x00214f30        0x0 contiki-cc2538dk.a(uip-ds6.o)
 .glue_7t       0x00214f30        0x0 contiki-cc2538dk.a(uip-ds6-nbr.o)
 .glue_7t       0x00214f30        0x0 contiki-cc2538dk.a(uip-ds6-route.o)
 .glue_7t       0x00214f30        0x0 contiki-cc2538dk.a(uip-icmp6.o)
 .glue_7t       0x00214f30        0x0 contiki-cc2538dk.a(uip-nd6.o)
 .glue_7t       0x00214f30        0x0 contiki-cc2538dk.a(csma.o)
 .glue_7t       0x00214f30        0x0 contiki-cc2538dk.a(framer-802154.o)
 .glue_7t       0x00214f30        0x0 contiki-cc2538dk.a(mac.o)
 .glue_7t       0x00214f30        0x0 contiki-cc2538dk.a(psock.o)
 .glue_7t       0x00214f30        0x0 contiki-cc2538dk.a(tcpip.o)
 .glue_7t       0x00214f30        0x0 contiki-cc2538dk.a(uip-debug.o)
 .glue_7t       0x00214f30        0x0 contiki-cc2538dk.a(uiplib.o)
 .glue_7t       0x00214f30        0x0 contiki-cc2538dk.a(uip-udp-packet.)
 .glue_7t       0x00214f30        0x0 contiki-cc2538dk.a(rpl.o)
 .glue_7t       0x00214f30        0x0 contiki-cc2538dk.a(rpl-dag.o)
 .glue_7t       0x00214f30        0x0 contiki-cc2538dk.a(rpl-ext-header.)
 .glue_7t       0x00214f30        0x0 contiki-cc2538dk.a(rpl-icmp6.o)
 .glue_7t       0x00214f30        0x0 contiki-cc2538dk.a(rpl-mrhof.o)
 .glue_7t       0x00214f30        0x0 contiki-cc2538dk.a(rpl-timers.o)
 .glue_7t       0x00214f30        0x0 contiki-cc2538dk.a(contikimac.o)
 .glue_7t       0x00214f30        0x0 contiki-cc2538dk.a(leds.o)
 .glue_7t       0x00214f30        0x0 contiki-cc2538dk.a(leds-arch.o)
 .glue_7t       0x00214f30        0x0 contiki-cc2538dk.a(frame802154.o)
 .glue_7t       0x00214f30        0x0 contiki-cc2538dk.a(mac-sequence.o)
 .glue_7t       0x00214f30        0x0 /home/user/CodeSourcery/Sourcery_G++_Lite/bin/../lib/gcc/arm-none-eabi/4.3.2/thumb2/libgcc.a(_aeabi_uldivmod.o)
 .glue_7t       0x00214f30        0x0 /home/user/CodeSourcery/Sourcery_G++_Lite/bin/../lib/gcc/arm-none-eabi/4.3.2/thumb2/libgcc.a(bpabi.o)
 .glue_7t       0x00214f30        0x0 /home/user/CodeSourcery/Sourcery_G++_Lite/bin/../lib/gcc/arm-none-eabi/4.3.2/thumb2/libgcc.a(_dvmd_tls.o)
 .glue_7t       0x00214f30        0x0 /home/user/CodeSourcery/Sourcery_G++_Lite/bin/../lib/gcc/arm-none-eabi/4.3.2/thumb2/libgcc.a(_divdi3.o)
 .glue_7t       0x00214f30        0x0 /home/user/CodeSourcery/Sourcery_G++_Lite/bin/../lib/gcc/arm-none-eabi/4.3.2/thumb2/libgcc.a(_udivdi3.o)
 .glue_7t       0x00214f30        0x0 /home/user/CodeSourcery/Sourcery_G++_Lite/bin/../lib/gcc/arm-none-eabi/4.3.2/thumb2/libgcc.a(_udivsi3.o)
 .glue_7t       0x00214f30        0x0 /home/user/CodeSourcery/Sourcery_G++_Lite/bin/../lib/gcc/arm-none-eabi/4.3.2/thumb2/libgcc.a(_clz.o)
 .glue_7t       0x00214f30        0x0 /home/user/CodeSourcery/Sourcery_G++_Lite/bin/../lib/gcc/arm-none-eabi/4.3.2/../../../../arm-none-eabi/lib/thumb2/libc.a(lib_a-atoi.o)
 .glue_7t       0x00214f30        0x0 /home/user/CodeSourcery/Sourcery_G++_Lite/bin/../lib/gcc/arm-none-eabi/4.3.2/../../../../arm-none-eabi/lib/thumb2/libc.a(lib_a-index.o)
 .glue_7t       0x00214f30        0x0 /home/user/CodeSourcery/Sourcery_G++_Lite/bin/../lib/gcc/arm-none-eabi/4.3.2/../../../../arm-none-eabi/lib/thumb2/libc.a(lib_a-lcltime_r.o)
 .glue_7t       0x00214f30        0x0 /home/user/CodeSourcery/Sourcery_G++_Lite/bin/../lib/gcc/arm-none-eabi/4.3.2/../../../../arm-none-eabi/lib/thumb2/libc.a(lib_a-memchr.o)
 .glue_7t       0x00214f30        0x0 /home/user/CodeSourcery/Sourcery_G++_Lite/bin/../lib/gcc/arm-none-eabi/4.3.2/../../../../arm-none-eabi/lib/thumb2/libc.a(lib_a-memcmp.o)
 .glue_7t       0x00214f30        0x0 /home/user/CodeSourcery/Sourcery_G++_Lite/bin/../lib/gcc/arm-none-eabi/4.3.2/../../../../arm-none-eabi/lib/thumb2/libc.a(lib_a-memcpy.o)
 .glue_7t       0x00214f30        0x0 /home/user/CodeSourcery/Sourcery_G++_Lite/bin/../lib/gcc/arm-none-eabi/4.3.2/../../../../arm-none-eabi/lib/thumb2/libc.a(lib_a-memmove.o)
 .glue_7t       0x00214f30        0x0 /home/user/CodeSourcery/Sourcery_G++_Lite/bin/../lib/gcc/arm-none-eabi/4.3.2/../../../../arm-none-eabi/lib/thumb2/libc.a(lib_a-memset.o)
 .glue_7t       0x00214f30        0x0 /home/user/CodeSourcery/Sourcery_G++_Lite/bin/../lib/gcc/arm-none-eabi/4.3.2/../../../../arm-none-eabi/lib/thumb2/libc.a(lib_a-mktm_r.o)
 .glue_7t       0x00214f30        0x0 /home/user/CodeSourcery/Sourcery_G++_Lite/bin/../lib/gcc/arm-none-eabi/4.3.2/../../../../arm-none-eabi/lib/thumb2/libc.a(lib_a-strchr.o)
 .glue_7t       0x00214f30        0x0 /home/user/CodeSourcery/Sourcery_G++_Lite/bin/../lib/gcc/arm-none-eabi/4.3.2/../../../../arm-none-eabi/lib/thumb2/libc.a(lib_a-strcmp.o)
 .glue_7t       0x00214f30        0x0 /home/user/CodeSourcery/Sourcery_G++_Lite/bin/../lib/gcc/arm-none-eabi/4.3.2/../../../../arm-none-eabi/lib/thumb2/libc.a(lib_a-strcpy.o)
 .glue_7t       0x00214f30        0x0 /home/user/CodeSourcery/Sourcery_G++_Lite/bin/../lib/gcc/arm-none-eabi/4.3.2/../../../../arm-none-eabi/lib/thumb2/libc.a(lib_a-strlen.o)
 .glue_7t       0x00214f30        0x0 /home/user/CodeSourcery/Sourcery_G++_Lite/bin/../lib/gcc/arm-none-eabi/4.3.2/../../../../arm-none-eabi/lib/thumb2/libc.a(lib_a-strncmp.o)
 .glue_7t       0x00214f30        0x0 /home/user/CodeSourcery/Sourcery_G++_Lite/bin/../lib/gcc/arm-none-eabi/4.3.2/../../../../arm-none-eabi/lib/thumb2/libc.a(lib_a-strncpy.o)
 .glue_7t       0x00214f30        0x0 /home/user/CodeSourcery/Sourcery_G++_Lite/bin/../lib/gcc/arm-none-eabi/4.3.2/../../../../arm-none-eabi/lib/thumb2/libc.a(lib_a-strstr.o)
 .glue_7t       0x00214f30        0x0 /home/user/CodeSourcery/Sourcery_G++_Lite/bin/../lib/gcc/arm-none-eabi/4.3.2/../../../../arm-none-eabi/lib/thumb2/libc.a(lib_a-strtol.o)
 .glue_7t       0x00214f30        0x0 /home/user/CodeSourcery/Sourcery_G++_Lite/bin/../lib/gcc/arm-none-eabi/4.3.2/../../../../arm-none-eabi/lib/thumb2/libc.a(lib_a-sysgettod.o)
 .glue_7t       0x00214f30        0x0 /home/user/CodeSourcery/Sourcery_G++_Lite/bin/../lib/gcc/arm-none-eabi/4.3.2/../../../../arm-none-eabi/lib/thumb2/libc.a(lib_a-tzlock.o)
 .glue_7t       0x00214f30        0x0 /home/user/CodeSourcery/Sourcery_G++_Lite/bin/../lib/gcc/arm-none-eabi/4.3.2/../../../../arm-none-eabi/lib/thumb2/libc.a(lib_a-tzvars.o)
 .glue_7t       0x00214f30        0x0 /home/user/CodeSourcery/Sourcery_G++_Lite/bin/../lib/gcc/arm-none-eabi/4.3.2/../../../../arm-none-eabi/lib/thumb2/libc.a(lib_a-ctype_.o)
 .glue_7t       0x00214f30        0x0 /home/user/CodeSourcery/Sourcery_G++_Lite/bin/../lib/gcc/arm-none-eabi/4.3.2/../../../../arm-none-eabi/lib/thumb2/libc.a(lib_a-gettimeofdayr.o)
 .glue_7t       0x00214f30        0x0 /home/user/CodeSourcery/Sourcery_G++_Lite/bin/../lib/gcc/arm-none-eabi/4.3.2/../../../../arm-none-eabi/lib/thumb2/libc.a(lib_a-gettzinfo.o)
 .glue_7t       0x00214f30        0x0 /home/user/CodeSourcery/Sourcery_G++_Lite/bin/../lib/gcc/arm-none-eabi/4.3.2/../../../../arm-none-eabi/lib/thumb2/libc.a(lib_a-impure.o)
 .glue_7t       0x00214f30        0x0 /home/user/CodeSourcery/Sourcery_G++_Lite/bin/../lib/gcc/arm-none-eabi/4.3.2/../../../../arm-none-eabi/lib/thumb2/libc.a(lib_a-reent.o)
 .glue_7t       0x00214f30        0x0 /home/user/CodeSourcery/Sourcery_G++_Lite/bin/../lib/gcc/arm-none-eabi/4.3.2/../../../../arm-none-eabi/lib/thumb2/libc.a(lib_a-freer.o)
 .glue_7t       0x00214f30        0x0 /home/user/CodeSourcery/Sourcery_G++_Lite/bin/../lib/gcc/arm-none-eabi/4.3.2/../../../../arm-none-eabi/lib/thumb2/libc.a(lib_a-mallocr.o)
 .glue_7t       0x00214f30        0x0 /home/user/CodeSourcery/Sourcery_G++_Lite/bin/../lib/gcc/arm-none-eabi/4.3.2/../../../../arm-none-eabi/lib/thumb2/libc.a(lib_a-mlock.o)
 .glue_7t       0x00214f30        0x0 /home/user/CodeSourcery/Sourcery_G++_Lite/bin/../lib/gcc/arm-none-eabi/4.3.2/../../../../arm-none-eabi/lib/thumb2/libc.a(lib_a-sbrkr.o)

.vfp11_veneer   0x00214f30        0x0 load address 0x00214f2f
 .vfp11_veneer  0x00214f30        0x0 obj_cc2538dk/startup-gcc.o
 .vfp11_veneer  0x00214f30        0x0 cetic-6lbr.co
 .vfp11_veneer  0x00214f30        0x0 obj_cc2538dk/webserver.o
 .vfp11_veneer  0x00214f30        0x0 obj_cc2538dk/httpd-simple.o
 .vfp11_veneer  0x00214f30        0x0 obj_cc2538dk/udp-server.o
 .vfp11_veneer  0x00214f30        0x0 obj_cc2538dk/udp-client.o
 .vfp11_veneer  0x00214f30        0x0 obj_cc2538dk/node-info.o
 .vfp11_veneer  0x00214f30        0x0 obj_cc2538dk/coap-server.o
 .vfp11_veneer  0x00214f30        0x0 obj_cc2538dk/block-transfer.o
 .vfp11_veneer  0x00214f30        0x0 obj_cc2538dk/log-6lbr.o
 .vfp11_veneer  0x00214f30        0x0 obj_cc2538dk/rio.o
 .vfp11_veneer  0x00214f30        0x0 obj_cc2538dk/packet-filter.o
 .vfp11_veneer  0x00214f30        0x0 obj_cc2538dk/sicslow-ethernet.o
 .vfp11_veneer  0x00214f30        0x0 obj_cc2538dk/nvm-config.o
 .vfp11_veneer  0x00214f30        0x0 obj_cc2538dk/cc2538dk-init.o
 .vfp11_veneer  0x00214f30        0x0 obj_cc2538dk/cc2538dk-nvm.o
 .vfp11_veneer  0x00214f30        0x0 obj_cc2538dk/enc28j60.o
 .vfp11_veneer  0x00214f30        0x0 obj_cc2538dk/enc28j60-drv.o
 .vfp11_veneer  0x00214f30        0x0 obj_cc2538dk/enc28j60-arch-spi.o
 .vfp11_veneer  0x00214f30        0x0 contiki-cc2538dk.a(er-coap-13.o)
 .vfp11_veneer  0x00214f30        0x0 contiki-cc2538dk.a(er-coap-13-engi)
 .vfp11_veneer  0x00214f30        0x0 contiki-cc2538dk.a(er-coap-13-tran)
 .vfp11_veneer  0x00214f30        0x0 contiki-cc2538dk.a(er-coap-13-obse)
 .vfp11_veneer  0x00214f30        0x0 contiki-cc2538dk.a(er-coap-13-udp.)
 .vfp11_veneer  0x00214f30        0x0 contiki-cc2538dk.a(erbium.o)
 .vfp11_veneer  0x00214f30        0x0 contiki-cc2538dk.a(contiki-main.o)
 .vfp11_veneer  0x00214f30        0x0 contiki-cc2538dk.a(sensors.o)
 .vfp11_veneer  0x00214f30        0x0 contiki-cc2538dk.a(smartrf-sensors)
 .vfp11_veneer  0x00214f30        0x0 contiki-cc2538dk.a(button-sensor.o)
 .vfp11_veneer  0x00214f30        0x0 contiki-cc2538dk.a(adc-sensor.o)
 .vfp11_veneer  0x00214f30        0x0 contiki-cc2538dk.a(clock.o)
 .vfp11_veneer  0x00214f30        0x0 contiki-cc2538dk.a(rtimer-arch.o)
 .vfp11_veneer  0x00214f30        0x0 contiki-cc2538dk.a(uart.o)
 .vfp11_veneer  0x00214f30        0x0 contiki-cc2538dk.a(watchdog.o)
 .vfp11_veneer  0x00214f30        0x0 contiki-cc2538dk.a(nvic.o)
 .vfp11_veneer  0x00214f30        0x0 contiki-cc2538dk.a(cpu.o)
 .vfp11_veneer  0x00214f30        0x0 contiki-cc2538dk.a(sys-ctrl.o)
 .vfp11_veneer  0x00214f30        0x0 contiki-cc2538dk.a(gpio.o)
 .vfp11_veneer  0x00214f30        0x0 contiki-cc2538dk.a(ioc.o)
 .vfp11_veneer  0x00214f30        0x0 contiki-cc2538dk.a(spi.o)
 .vfp11_veneer  0x00214f30        0x0 contiki-cc2538dk.a(adc.o)
 .vfp11_veneer  0x00214f30        0x0 contiki-cc2538dk.a(cc2538-rf.o)
 .vfp11_veneer  0x00214f30        0x0 contiki-cc2538dk.a(udma.o)
 .vfp11_veneer  0x00214f30        0x0 contiki-cc2538dk.a(lpm.o)
 .vfp11_veneer  0x00214f30        0x0 contiki-cc2538dk.a(dbg.o)
 .vfp11_veneer  0x00214f30        0x0 contiki-cc2538dk.a(ieee-addr.o)
 .vfp11_veneer  0x00214f30        0x0 contiki-cc2538dk.a(dbg-printf.o)
 .vfp11_veneer  0x00214f30        0x0 contiki-cc2538dk.a(dbg-snprintf.o)
 .vfp11_veneer  0x00214f30        0x0 contiki-cc2538dk.a(dbg-sprintf.o)
 .vfp11_veneer  0x00214f30        0x0 contiki-cc2538dk.a(strformat.o)
 .vfp11_veneer  0x00214f30        0x0 contiki-cc2538dk.a(autostart.o)
 .vfp11_veneer  0x00214f30        0x0 contiki-cc2538dk.a(ctimer.o)
 .vfp11_veneer  0x00214f30        0x0 contiki-cc2538dk.a(energest.o)
 .vfp11_veneer  0x00214f30        0x0 contiki-cc2538dk.a(etimer.o)
 .vfp11_veneer  0x00214f30        0x0 contiki-cc2538dk.a(process.o)
 .vfp11_veneer  0x00214f30        0x0 contiki-cc2538dk.a(rtimer.o)
 .vfp11_veneer  0x00214f30        0x0 contiki-cc2538dk.a(stimer.o)
 .vfp11_veneer  0x00214f30        0x0 contiki-cc2538dk.a(timer.o)
 .vfp11_veneer  0x00214f30        0x0 contiki-cc2538dk.a(serial-line.o)
 .vfp11_veneer  0x00214f30        0x0 contiki-cc2538dk.a(list.o)
 .vfp11_veneer  0x00214f30        0x0 contiki-cc2538dk.a(memb.o)
 .vfp11_veneer  0x00214f30        0x0 contiki-cc2538dk.a(random.o)
 .vfp11_veneer  0x00214f30        0x0 contiki-cc2538dk.a(ringbuf.o)
 .vfp11_veneer  0x00214f30        0x0 contiki-cc2538dk.a(linkaddr.o)
 .vfp11_veneer  0x00214f30        0x0 contiki-cc2538dk.a(nbr-table.o)
 .vfp11_veneer  0x00214f30        0x0 contiki-cc2538dk.a(netstack.o)
 .vfp11_veneer  0x00214f30        0x0 contiki-cc2538dk.a(packetbuf.o)
 .vfp11_veneer  0x00214f30        0x0 contiki-cc2538dk.a(queuebuf.o)
 .vfp11_veneer  0x00214f30        0x0 contiki-cc2538dk.a(sicslowpan.o)
 .vfp11_veneer  0x00214f30        0x0 contiki-cc2538dk.a(uip6.o)
 .vfp11_veneer  0x00214f30        0x0 contiki-cc2538dk.a(uip-ds6.o)
 .vfp11_veneer  0x00214f30        0x0 contiki-cc2538dk.a(uip-ds6-nbr.o)
 .vfp11_veneer  0x00214f30        0x0 contiki-cc2538dk.a(uip-ds6-route.o)
 .vfp11_veneer  0x00214f30        0x0 contiki-cc2538dk.a(uip-icmp6.o)
 .vfp11_veneer  0x00214f30        0x0 contiki-cc2538dk.a(uip-nd6.o)
 .vfp11_veneer  0x00214f30        0x0 contiki-cc2538dk.a(csma.o)
 .vfp11_veneer  0x00214f30        0x0 contiki-cc2538dk.a(framer-802154.o)
 .vfp11_veneer  0x00214f30        0x0 contiki-cc2538dk.a(mac.o)
 .vfp11_veneer  0x00214f30        0x0 contiki-cc2538dk.a(psock.o)
 .vfp11_veneer  0x00214f30        0x0 contiki-cc2538dk.a(tcpip.o)
 .vfp11_veneer  0x00214f30        0x0 contiki-cc2538dk.a(uip-debug.o)
 .vfp11_veneer  0x00214f30        0x0 contiki-cc2538dk.a(uiplib.o)
 .vfp11_veneer  0x00214f30        0x0 contiki-cc2538dk.a(uip-udp-packet.)
 .vfp11_veneer  0x00214f30        0x0 contiki-cc2538dk.a(rpl.o)
 .vfp11_veneer  0x00214f30        0x0 contiki-cc2538dk.a(rpl-dag.o)
 .vfp11_veneer  0x00214f30        0x0 contiki-cc2538dk.a(rpl-ext-header.)
 .vfp11_veneer  0x00214f30        0x0 contiki-cc2538dk.a(rpl-icmp6.o)
 .vfp11_veneer  0x00214f30        0x0 contiki-cc2538dk.a(rpl-mrhof.o)
 .vfp11_veneer  0x00214f30        0x0 contiki-cc2538dk.a(rpl-timers.o)
 .vfp11_veneer  0x00214f30        0x0 contiki-cc2538dk.a(contikimac.o)
 .vfp11_veneer  0x00214f30        0x0 contiki-cc2538dk.a(leds.o)
 .vfp11_veneer  0x00214f30        0x0 contiki-cc2538dk.a(leds-arch.o)
 .vfp11_veneer  0x00214f30        0x0 contiki-cc2538dk.a(frame802154.o)
 .vfp11_veneer  0x00214f30        0x0 contiki-cc2538dk.a(mac-sequence.o)
 .vfp11_veneer  0x00214f30        0x0 /home/user/CodeSourcery/Sourcery_G++_Lite/bin/../lib/gcc/arm-none-eabi/4.3.2/thumb2/libgcc.a(_aeabi_uldivmod.o)
 .vfp11_veneer  0x00214f30        0x0 /home/user/CodeSourcery/Sourcery_G++_Lite/bin/../lib/gcc/arm-none-eabi/4.3.2/thumb2/libgcc.a(bpabi.o)
 .vfp11_veneer  0x00214f30        0x0 /home/user/CodeSourcery/Sourcery_G++_Lite/bin/../lib/gcc/arm-none-eabi/4.3.2/thumb2/libgcc.a(_dvmd_tls.o)
 .vfp11_veneer  0x00214f30        0x0 /home/user/CodeSourcery/Sourcery_G++_Lite/bin/../lib/gcc/arm-none-eabi/4.3.2/thumb2/libgcc.a(_divdi3.o)
 .vfp11_veneer  0x00214f30        0x0 /home/user/CodeSourcery/Sourcery_G++_Lite/bin/../lib/gcc/arm-none-eabi/4.3.2/thumb2/libgcc.a(_udivdi3.o)
 .vfp11_veneer  0x00214f30        0x0 /home/user/CodeSourcery/Sourcery_G++_Lite/bin/../lib/gcc/arm-none-eabi/4.3.2/thumb2/libgcc.a(_udivsi3.o)
 .vfp11_veneer  0x00214f30        0x0 /home/user/CodeSourcery/Sourcery_G++_Lite/bin/../lib/gcc/arm-none-eabi/4.3.2/thumb2/libgcc.a(_clz.o)
 .vfp11_veneer  0x00214f30        0x0 /home/user/CodeSourcery/Sourcery_G++_Lite/bin/../lib/gcc/arm-none-eabi/4.3.2/../../../../arm-none-eabi/lib/thumb2/libc.a(lib_a-atoi.o)
 .vfp11_veneer  0x00214f30        0x0 /home/user/CodeSourcery/Sourcery_G++_Lite/bin/../lib/gcc/arm-none-eabi/4.3.2/../../../../arm-none-eabi/lib/thumb2/libc.a(lib_a-index.o)
 .vfp11_veneer  0x00214f30        0x0 /home/user/CodeSourcery/Sourcery_G++_Lite/bin/../lib/gcc/arm-none-eabi/4.3.2/../../../../arm-none-eabi/lib/thumb2/libc.a(lib_a-lcltime_r.o)
 .vfp11_veneer  0x00214f30        0x0 /home/user/CodeSourcery/Sourcery_G++_Lite/bin/../lib/gcc/arm-none-eabi/4.3.2/../../../../arm-none-eabi/lib/thumb2/libc.a(lib_a-memchr.o)
 .vfp11_veneer  0x00214f30        0x0 /home/user/CodeSourcery/Sourcery_G++_Lite/bin/../lib/gcc/arm-none-eabi/4.3.2/../../../../arm-none-eabi/lib/thumb2/libc.a(lib_a-memcmp.o)
 .vfp11_veneer  0x00214f30        0x0 /home/user/CodeSourcery/Sourcery_G++_Lite/bin/../lib/gcc/arm-none-eabi/4.3.2/../../../../arm-none-eabi/lib/thumb2/libc.a(lib_a-memcpy.o)
 .vfp11_veneer  0x00214f30        0x0 /home/user/CodeSourcery/Sourcery_G++_Lite/bin/../lib/gcc/arm-none-eabi/4.3.2/../../../../arm-none-eabi/lib/thumb2/libc.a(lib_a-memmove.o)
 .vfp11_veneer  0x00214f30        0x0 /home/user/CodeSourcery/Sourcery_G++_Lite/bin/../lib/gcc/arm-none-eabi/4.3.2/../../../../arm-none-eabi/lib/thumb2/libc.a(lib_a-memset.o)
 .vfp11_veneer  0x00214f30        0x0 /home/user/CodeSourcery/Sourcery_G++_Lite/bin/../lib/gcc/arm-none-eabi/4.3.2/../../../../arm-none-eabi/lib/thumb2/libc.a(lib_a-mktm_r.o)
 .vfp11_veneer  0x00214f30        0x0 /home/user/CodeSourcery/Sourcery_G++_Lite/bin/../lib/gcc/arm-none-eabi/4.3.2/../../../../arm-none-eabi/lib/thumb2/libc.a(lib_a-strchr.o)
 .vfp11_veneer  0x00214f30        0x0 /home/user/CodeSourcery/Sourcery_G++_Lite/bin/../lib/gcc/arm-none-eabi/4.3.2/../../../../arm-none-eabi/lib/thumb2/libc.a(lib_a-strcmp.o)
 .vfp11_veneer  0x00214f30        0x0 /home/user/CodeSourcery/Sourcery_G++_Lite/bin/../lib/gcc/arm-none-eabi/4.3.2/../../../../arm-none-eabi/lib/thumb2/libc.a(lib_a-strcpy.o)
 .vfp11_veneer  0x00214f30        0x0 /home/user/CodeSourcery/Sourcery_G++_Lite/bin/../lib/gcc/arm-none-eabi/4.3.2/../../../../arm-none-eabi/lib/thumb2/libc.a(lib_a-strlen.o)
 .vfp11_veneer  0x00214f30        0x0 /home/user/CodeSourcery/Sourcery_G++_Lite/bin/../lib/gcc/arm-none-eabi/4.3.2/../../../../arm-none-eabi/lib/thumb2/libc.a(lib_a-strncmp.o)
 .vfp11_veneer  0x00214f30        0x0 /home/user/CodeSourcery/Sourcery_G++_Lite/bin/../lib/gcc/arm-none-eabi/4.3.2/../../../../arm-none-eabi/lib/thumb2/libc.a(lib_a-strncpy.o)
 .vfp11_veneer  0x00214f30        0x0 /home/user/CodeSourcery/Sourcery_G++_Lite/bin/../lib/gcc/arm-none-eabi/4.3.2/../../../../arm-none-eabi/lib/thumb2/libc.a(lib_a-strstr.o)
 .vfp11_veneer  0x00214f30        0x0 /home/user/CodeSourcery/Sourcery_G++_Lite/bin/../lib/gcc/arm-none-eabi/4.3.2/../../../../arm-none-eabi/lib/thumb2/libc.a(lib_a-strtol.o)
 .vfp11_veneer  0x00214f30        0x0 /home/user/CodeSourcery/Sourcery_G++_Lite/bin/../lib/gcc/arm-none-eabi/4.3.2/../../../../arm-none-eabi/lib/thumb2/libc.a(lib_a-sysgettod.o)
 .vfp11_veneer  0x00214f30        0x0 /home/user/CodeSourcery/Sourcery_G++_Lite/bin/../lib/gcc/arm-none-eabi/4.3.2/../../../../arm-none-eabi/lib/thumb2/libc.a(lib_a-tzlock.o)
 .vfp11_veneer  0x00214f30        0x0 /home/user/CodeSourcery/Sourcery_G++_Lite/bin/../lib/gcc/arm-none-eabi/4.3.2/../../../../arm-none-eabi/lib/thumb2/libc.a(lib_a-tzvars.o)
 .vfp11_veneer  0x00214f30        0x0 /home/user/CodeSourcery/Sourcery_G++_Lite/bin/../lib/gcc/arm-none-eabi/4.3.2/../../../../arm-none-eabi/lib/thumb2/libc.a(lib_a-ctype_.o)
 .vfp11_veneer  0x00214f30        0x0 /home/user/CodeSourcery/Sourcery_G++_Lite/bin/../lib/gcc/arm-none-eabi/4.3.2/../../../../arm-none-eabi/lib/thumb2/libc.a(lib_a-gettimeofdayr.o)
 .vfp11_veneer  0x00214f30        0x0 /home/user/CodeSourcery/Sourcery_G++_Lite/bin/../lib/gcc/arm-none-eabi/4.3.2/../../../../arm-none-eabi/lib/thumb2/libc.a(lib_a-gettzinfo.o)
 .vfp11_veneer  0x00214f30        0x0 /home/user/CodeSourcery/Sourcery_G++_Lite/bin/../lib/gcc/arm-none-eabi/4.3.2/../../../../arm-none-eabi/lib/thumb2/libc.a(lib_a-impure.o)
 .vfp11_veneer  0x00214f30        0x0 /home/user/CodeSourcery/Sourcery_G++_Lite/bin/../lib/gcc/arm-none-eabi/4.3.2/../../../../arm-none-eabi/lib/thumb2/libc.a(lib_a-reent.o)
 .vfp11_veneer  0x00214f30        0x0 /home/user/CodeSourcery/Sourcery_G++_Lite/bin/../lib/gcc/arm-none-eabi/4.3.2/../../../../arm-none-eabi/lib/thumb2/libc.a(lib_a-freer.o)
 .vfp11_veneer  0x00214f30        0x0 /home/user/CodeSourcery/Sourcery_G++_Lite/bin/../lib/gcc/arm-none-eabi/4.3.2/../../../../arm-none-eabi/lib/thumb2/libc.a(lib_a-mallocr.o)
 .vfp11_veneer  0x00214f30        0x0 /home/user/CodeSourcery/Sourcery_G++_Lite/bin/../lib/gcc/arm-none-eabi/4.3.2/../../../../arm-none-eabi/lib/thumb2/libc.a(lib_a-mlock.o)
 .vfp11_veneer  0x00214f30        0x0 /home/user/CodeSourcery/Sourcery_G++_Lite/bin/../lib/gcc/arm-none-eabi/4.3.2/../../../../arm-none-eabi/lib/thumb2/libc.a(lib_a-sbrkr.o)

.janus_2cc_veneer
                0x00214f30        0x0 load address 0x00214f2f
 .janus_2cc_veneer
                0x00214f30        0x0 obj_cc2538dk/startup-gcc.o
 .janus_2cc_veneer
                0x00214f30        0x0 cetic-6lbr.co
 .janus_2cc_veneer
                0x00214f30        0x0 obj_cc2538dk/webserver.o
 .janus_2cc_veneer
                0x00214f30        0x0 obj_cc2538dk/httpd-simple.o
 .janus_2cc_veneer
                0x00214f30        0x0 obj_cc2538dk/udp-server.o
 .janus_2cc_veneer
                0x00214f30        0x0 obj_cc2538dk/udp-client.o
 .janus_2cc_veneer
                0x00214f30        0x0 obj_cc2538dk/node-info.o
 .janus_2cc_veneer
                0x00214f30        0x0 obj_cc2538dk/coap-server.o
 .janus_2cc_veneer
                0x00214f30        0x0 obj_cc2538dk/block-transfer.o
 .janus_2cc_veneer
                0x00214f30        0x0 obj_cc2538dk/log-6lbr.o
 .janus_2cc_veneer
                0x00214f30        0x0 obj_cc2538dk/rio.o
 .janus_2cc_veneer
                0x00214f30        0x0 obj_cc2538dk/packet-filter.o
 .janus_2cc_veneer
                0x00214f30        0x0 obj_cc2538dk/sicslow-ethernet.o
 .janus_2cc_veneer
                0x00214f30        0x0 obj_cc2538dk/nvm-config.o
 .janus_2cc_veneer
                0x00214f30        0x0 obj_cc2538dk/cc2538dk-init.o
 .janus_2cc_veneer
                0x00214f30        0x0 obj_cc2538dk/cc2538dk-nvm.o
 .janus_2cc_veneer
                0x00214f30        0x0 obj_cc2538dk/enc28j60.o
 .janus_2cc_veneer
                0x00214f30        0x0 obj_cc2538dk/enc28j60-drv.o
 .janus_2cc_veneer
                0x00214f30        0x0 obj_cc2538dk/enc28j60-arch-spi.o
 .janus_2cc_veneer
                0x00214f30        0x0 contiki-cc2538dk.a(er-coap-13.o)
 .janus_2cc_veneer
                0x00214f30        0x0 contiki-cc2538dk.a(er-coap-13-engi)
 .janus_2cc_veneer
                0x00214f30        0x0 contiki-cc2538dk.a(er-coap-13-tran)
 .janus_2cc_veneer
                0x00214f30        0x0 contiki-cc2538dk.a(er-coap-13-obse)
 .janus_2cc_veneer
                0x00214f30        0x0 contiki-cc2538dk.a(er-coap-13-udp.)
 .janus_2cc_veneer
                0x00214f30        0x0 contiki-cc2538dk.a(erbium.o)
 .janus_2cc_veneer
                0x00214f30        0x0 contiki-cc2538dk.a(contiki-main.o)
 .janus_2cc_veneer
                0x00214f30        0x0 contiki-cc2538dk.a(sensors.o)
 .janus_2cc_veneer
                0x00214f30        0x0 contiki-cc2538dk.a(smartrf-sensors)
 .janus_2cc_veneer
                0x00214f30        0x0 contiki-cc2538dk.a(button-sensor.o)
 .janus_2cc_veneer
                0x00214f30        0x0 contiki-cc2538dk.a(adc-sensor.o)
 .janus_2cc_veneer
                0x00214f30        0x0 contiki-cc2538dk.a(clock.o)
 .janus_2cc_veneer
                0x00214f30        0x0 contiki-cc2538dk.a(rtimer-arch.o)
 .janus_2cc_veneer
                0x00214f30        0x0 contiki-cc2538dk.a(uart.o)
 .janus_2cc_veneer
                0x00214f30        0x0 contiki-cc2538dk.a(watchdog.o)
 .janus_2cc_veneer
                0x00214f30        0x0 contiki-cc2538dk.a(nvic.o)
 .janus_2cc_veneer
                0x00214f30        0x0 contiki-cc2538dk.a(cpu.o)
 .janus_2cc_veneer
                0x00214f30        0x0 contiki-cc2538dk.a(sys-ctrl.o)
 .janus_2cc_veneer
                0x00214f30        0x0 contiki-cc2538dk.a(gpio.o)
 .janus_2cc_veneer
                0x00214f30        0x0 contiki-cc2538dk.a(ioc.o)
 .janus_2cc_veneer
                0x00214f30        0x0 contiki-cc2538dk.a(spi.o)
 .janus_2cc_veneer
                0x00214f30        0x0 contiki-cc2538dk.a(adc.o)
 .janus_2cc_veneer
                0x00214f30        0x0 contiki-cc2538dk.a(cc2538-rf.o)
 .janus_2cc_veneer
                0x00214f30        0x0 contiki-cc2538dk.a(udma.o)
 .janus_2cc_veneer
                0x00214f30        0x0 contiki-cc2538dk.a(lpm.o)
 .janus_2cc_veneer
                0x00214f30        0x0 contiki-cc2538dk.a(dbg.o)
 .janus_2cc_veneer
                0x00214f30        0x0 contiki-cc2538dk.a(ieee-addr.o)
 .janus_2cc_veneer
                0x00214f30        0x0 contiki-cc2538dk.a(dbg-printf.o)
 .janus_2cc_veneer
                0x00214f30        0x0 contiki-cc2538dk.a(dbg-snprintf.o)
 .janus_2cc_veneer
                0x00214f30        0x0 contiki-cc2538dk.a(dbg-sprintf.o)
 .janus_2cc_veneer
                0x00214f30        0x0 contiki-cc2538dk.a(strformat.o)
 .janus_2cc_veneer
                0x00214f30        0x0 contiki-cc2538dk.a(autostart.o)
 .janus_2cc_veneer
                0x00214f30        0x0 contiki-cc2538dk.a(ctimer.o)
 .janus_2cc_veneer
                0x00214f30        0x0 contiki-cc2538dk.a(energest.o)
 .janus_2cc_veneer
                0x00214f30        0x0 contiki-cc2538dk.a(etimer.o)
 .janus_2cc_veneer
                0x00214f30        0x0 contiki-cc2538dk.a(process.o)
 .janus_2cc_veneer
                0x00214f30        0x0 contiki-cc2538dk.a(rtimer.o)
 .janus_2cc_veneer
                0x00214f30        0x0 contiki-cc2538dk.a(stimer.o)
 .janus_2cc_veneer
                0x00214f30        0x0 contiki-cc2538dk.a(timer.o)
 .janus_2cc_veneer
                0x00214f30        0x0 contiki-cc2538dk.a(serial-line.o)
 .janus_2cc_veneer
                0x00214f30        0x0 contiki-cc2538dk.a(list.o)
 .janus_2cc_veneer
                0x00214f30        0x0 contiki-cc2538dk.a(memb.o)
 .janus_2cc_veneer
                0x00214f30        0x0 contiki-cc2538dk.a(random.o)
 .janus_2cc_veneer
                0x00214f30        0x0 contiki-cc2538dk.a(ringbuf.o)
 .janus_2cc_veneer
                0x00214f30        0x0 contiki-cc2538dk.a(linkaddr.o)
 .janus_2cc_veneer
                0x00214f30        0x0 contiki-cc2538dk.a(nbr-table.o)
 .janus_2cc_veneer
                0x00214f30        0x0 contiki-cc2538dk.a(netstack.o)
 .janus_2cc_veneer
                0x00214f30        0x0 contiki-cc2538dk.a(packetbuf.o)
 .janus_2cc_veneer
                0x00214f30        0x0 contiki-cc2538dk.a(queuebuf.o)
 .janus_2cc_veneer
                0x00214f30        0x0 contiki-cc2538dk.a(sicslowpan.o)
 .janus_2cc_veneer
                0x00214f30        0x0 contiki-cc2538dk.a(uip6.o)
 .janus_2cc_veneer
                0x00214f30        0x0 contiki-cc2538dk.a(uip-ds6.o)
 .janus_2cc_veneer
                0x00214f30        0x0 contiki-cc2538dk.a(uip-ds6-nbr.o)
 .janus_2cc_veneer
                0x00214f30        0x0 contiki-cc2538dk.a(uip-ds6-route.o)
 .janus_2cc_veneer
                0x00214f30        0x0 contiki-cc2538dk.a(uip-icmp6.o)
 .janus_2cc_veneer
                0x00214f30        0x0 contiki-cc2538dk.a(uip-nd6.o)
 .janus_2cc_veneer
                0x00214f30        0x0 contiki-cc2538dk.a(csma.o)
 .janus_2cc_veneer
                0x00214f30        0x0 contiki-cc2538dk.a(framer-802154.o)
 .janus_2cc_veneer
                0x00214f30        0x0 contiki-cc2538dk.a(mac.o)
 .janus_2cc_veneer
                0x00214f30        0x0 contiki-cc2538dk.a(psock.o)
 .janus_2cc_veneer
                0x00214f30        0x0 contiki-cc2538dk.a(tcpip.o)
 .janus_2cc_veneer
                0x00214f30        0x0 contiki-cc2538dk.a(uip-debug.o)
 .janus_2cc_veneer
                0x00214f30        0x0 contiki-cc2538dk.a(uiplib.o)
 .janus_2cc_veneer
                0x00214f30        0x0 contiki-cc2538dk.a(uip-udp-packet.)
 .janus_2cc_veneer
                0x00214f30        0x0 contiki-cc2538dk.a(rpl.o)
 .janus_2cc_veneer
                0x00214f30        0x0 contiki-cc2538dk.a(rpl-dag.o)
 .janus_2cc_veneer
                0x00214f30        0x0 contiki-cc2538dk.a(rpl-ext-header.)
 .janus_2cc_veneer
                0x00214f30        0x0 contiki-cc2538dk.a(rpl-icmp6.o)
 .janus_2cc_veneer
                0x00214f30        0x0 contiki-cc2538dk.a(rpl-mrhof.o)
 .janus_2cc_veneer
                0x00214f30        0x0 contiki-cc2538dk.a(rpl-timers.o)
 .janus_2cc_veneer
                0x00214f30        0x0 contiki-cc2538dk.a(contikimac.o)
 .janus_2cc_veneer
                0x00214f30        0x0 contiki-cc2538dk.a(leds.o)
 .janus_2cc_veneer
                0x00214f30        0x0 contiki-cc2538dk.a(leds-arch.o)
 .janus_2cc_veneer
                0x00214f30        0x0 contiki-cc2538dk.a(frame802154.o)
 .janus_2cc_veneer
                0x00214f30        0x0 contiki-cc2538dk.a(mac-sequence.o)
 .janus_2cc_veneer
                0x00214f30        0x0 /home/user/CodeSourcery/Sourcery_G++_Lite/bin/../lib/gcc/arm-none-eabi/4.3.2/thumb2/libgcc.a(_aeabi_uldivmod.o)
 .janus_2cc_veneer
                0x00214f30        0x0 /home/user/CodeSourcery/Sourcery_G++_Lite/bin/../lib/gcc/arm-none-eabi/4.3.2/thumb2/libgcc.a(bpabi.o)
 .janus_2cc_veneer
                0x00214f30        0x0 /home/user/CodeSourcery/Sourcery_G++_Lite/bin/../lib/gcc/arm-none-eabi/4.3.2/thumb2/libgcc.a(_dvmd_tls.o)
 .janus_2cc_veneer
                0x00214f30        0x0 /home/user/CodeSourcery/Sourcery_G++_Lite/bin/../lib/gcc/arm-none-eabi/4.3.2/thumb2/libgcc.a(_divdi3.o)
 .janus_2cc_veneer
                0x00214f30        0x0 /home/user/CodeSourcery/Sourcery_G++_Lite/bin/../lib/gcc/arm-none-eabi/4.3.2/thumb2/libgcc.a(_udivdi3.o)
 .janus_2cc_veneer
                0x00214f30        0x0 /home/user/CodeSourcery/Sourcery_G++_Lite/bin/../lib/gcc/arm-none-eabi/4.3.2/thumb2/libgcc.a(_udivsi3.o)
 .janus_2cc_veneer
                0x00214f30        0x0 /home/user/CodeSourcery/Sourcery_G++_Lite/bin/../lib/gcc/arm-none-eabi/4.3.2/thumb2/libgcc.a(_clz.o)
 .janus_2cc_veneer
                0x00214f30        0x0 /home/user/CodeSourcery/Sourcery_G++_Lite/bin/../lib/gcc/arm-none-eabi/4.3.2/../../../../arm-none-eabi/lib/thumb2/libc.a(lib_a-atoi.o)
 .janus_2cc_veneer
                0x00214f30        0x0 /home/user/CodeSourcery/Sourcery_G++_Lite/bin/../lib/gcc/arm-none-eabi/4.3.2/../../../../arm-none-eabi/lib/thumb2/libc.a(lib_a-index.o)
 .janus_2cc_veneer
                0x00214f30        0x0 /home/user/CodeSourcery/Sourcery_G++_Lite/bin/../lib/gcc/arm-none-eabi/4.3.2/../../../../arm-none-eabi/lib/thumb2/libc.a(lib_a-lcltime_r.o)
 .janus_2cc_veneer
                0x00214f30        0x0 /home/user/CodeSourcery/Sourcery_G++_Lite/bin/../lib/gcc/arm-none-eabi/4.3.2/../../../../arm-none-eabi/lib/thumb2/libc.a(lib_a-memchr.o)
 .janus_2cc_veneer
                0x00214f30        0x0 /home/user/CodeSourcery/Sourcery_G++_Lite/bin/../lib/gcc/arm-none-eabi/4.3.2/../../../../arm-none-eabi/lib/thumb2/libc.a(lib_a-memcmp.o)
 .janus_2cc_veneer
                0x00214f30        0x0 /home/user/CodeSourcery/Sourcery_G++_Lite/bin/../lib/gcc/arm-none-eabi/4.3.2/../../../../arm-none-eabi/lib/thumb2/libc.a(lib_a-memcpy.o)
 .janus_2cc_veneer
                0x00214f30        0x0 /home/user/CodeSourcery/Sourcery_G++_Lite/bin/../lib/gcc/arm-none-eabi/4.3.2/../../../../arm-none-eabi/lib/thumb2/libc.a(lib_a-memmove.o)
 .janus_2cc_veneer
                0x00214f30        0x0 /home/user/CodeSourcery/Sourcery_G++_Lite/bin/../lib/gcc/arm-none-eabi/4.3.2/../../../../arm-none-eabi/lib/thumb2/libc.a(lib_a-memset.o)
 .janus_2cc_veneer
                0x00214f30        0x0 /home/user/CodeSourcery/Sourcery_G++_Lite/bin/../lib/gcc/arm-none-eabi/4.3.2/../../../../arm-none-eabi/lib/thumb2/libc.a(lib_a-mktm_r.o)
 .janus_2cc_veneer
                0x00214f30        0x0 /home/user/CodeSourcery/Sourcery_G++_Lite/bin/../lib/gcc/arm-none-eabi/4.3.2/../../../../arm-none-eabi/lib/thumb2/libc.a(lib_a-strchr.o)
 .janus_2cc_veneer
                0x00214f30        0x0 /home/user/CodeSourcery/Sourcery_G++_Lite/bin/../lib/gcc/arm-none-eabi/4.3.2/../../../../arm-none-eabi/lib/thumb2/libc.a(lib_a-strcmp.o)
 .janus_2cc_veneer
                0x00214f30        0x0 /home/user/CodeSourcery/Sourcery_G++_Lite/bin/../lib/gcc/arm-none-eabi/4.3.2/../../../../arm-none-eabi/lib/thumb2/libc.a(lib_a-strcpy.o)
 .janus_2cc_veneer
                0x00214f30        0x0 /home/user/CodeSourcery/Sourcery_G++_Lite/bin/../lib/gcc/arm-none-eabi/4.3.2/../../../../arm-none-eabi/lib/thumb2/libc.a(lib_a-strlen.o)
 .janus_2cc_veneer
                0x00214f30        0x0 /home/user/CodeSourcery/Sourcery_G++_Lite/bin/../lib/gcc/arm-none-eabi/4.3.2/../../../../arm-none-eabi/lib/thumb2/libc.a(lib_a-strncmp.o)
 .janus_2cc_veneer
                0x00214f30        0x0 /home/user/CodeSourcery/Sourcery_G++_Lite/bin/../lib/gcc/arm-none-eabi/4.3.2/../../../../arm-none-eabi/lib/thumb2/libc.a(lib_a-strncpy.o)
 .janus_2cc_veneer
                0x00214f30        0x0 /home/user/CodeSourcery/Sourcery_G++_Lite/bin/../lib/gcc/arm-none-eabi/4.3.2/../../../../arm-none-eabi/lib/thumb2/libc.a(lib_a-strstr.o)
 .janus_2cc_veneer
                0x00214f30        0x0 /home/user/CodeSourcery/Sourcery_G++_Lite/bin/../lib/gcc/arm-none-eabi/4.3.2/../../../../arm-none-eabi/lib/thumb2/libc.a(lib_a-strtol.o)
 .janus_2cc_veneer
                0x00214f30        0x0 /home/user/CodeSourcery/Sourcery_G++_Lite/bin/../lib/gcc/arm-none-eabi/4.3.2/../../../../arm-none-eabi/lib/thumb2/libc.a(lib_a-sysgettod.o)
 .janus_2cc_veneer
                0x00214f30        0x0 /home/user/CodeSourcery/Sourcery_G++_Lite/bin/../lib/gcc/arm-none-eabi/4.3.2/../../../../arm-none-eabi/lib/thumb2/libc.a(lib_a-tzlock.o)
 .janus_2cc_veneer
                0x00214f30        0x0 /home/user/CodeSourcery/Sourcery_G++_Lite/bin/../lib/gcc/arm-none-eabi/4.3.2/../../../../arm-none-eabi/lib/thumb2/libc.a(lib_a-tzvars.o)
 .janus_2cc_veneer
                0x00214f30        0x0 /home/user/CodeSourcery/Sourcery_G++_Lite/bin/../lib/gcc/arm-none-eabi/4.3.2/../../../../arm-none-eabi/lib/thumb2/libc.a(lib_a-ctype_.o)
 .janus_2cc_veneer
                0x00214f30        0x0 /home/user/CodeSourcery/Sourcery_G++_Lite/bin/../lib/gcc/arm-none-eabi/4.3.2/../../../../arm-none-eabi/lib/thumb2/libc.a(lib_a-gettimeofdayr.o)
 .janus_2cc_veneer
                0x00214f30        0x0 /home/user/CodeSourcery/Sourcery_G++_Lite/bin/../lib/gcc/arm-none-eabi/4.3.2/../../../../arm-none-eabi/lib/thumb2/libc.a(lib_a-gettzinfo.o)
 .janus_2cc_veneer
                0x00214f30        0x0 /home/user/CodeSourcery/Sourcery_G++_Lite/bin/../lib/gcc/arm-none-eabi/4.3.2/../../../../arm-none-eabi/lib/thumb2/libc.a(lib_a-impure.o)
 .janus_2cc_veneer
                0x00214f30        0x0 /home/user/CodeSourcery/Sourcery_G++_Lite/bin/../lib/gcc/arm-none-eabi/4.3.2/../../../../arm-none-eabi/lib/thumb2/libc.a(lib_a-reent.o)
 .janus_2cc_veneer
                0x00214f30        0x0 /home/user/CodeSourcery/Sourcery_G++_Lite/bin/../lib/gcc/arm-none-eabi/4.3.2/../../../../arm-none-eabi/lib/thumb2/libc.a(lib_a-freer.o)
 .janus_2cc_veneer
                0x00214f30        0x0 /home/user/CodeSourcery/Sourcery_G++_Lite/bin/../lib/gcc/arm-none-eabi/4.3.2/../../../../arm-none-eabi/lib/thumb2/libc.a(lib_a-mallocr.o)
 .janus_2cc_veneer
                0x00214f30        0x0 /home/user/CodeSourcery/Sourcery_G++_Lite/bin/../lib/gcc/arm-none-eabi/4.3.2/../../../../arm-none-eabi/lib/thumb2/libc.a(lib_a-mlock.o)
 .janus_2cc_veneer
                0x00214f30        0x0 /home/user/CodeSourcery/Sourcery_G++_Lite/bin/../lib/gcc/arm-none-eabi/4.3.2/../../../../arm-none-eabi/lib/thumb2/libc.a(lib_a-sbrkr.o)

.v4_bx          0x00214f30        0x0 load address 0x00214f2f
 .v4_bx         0x00214f30        0x0 obj_cc2538dk/startup-gcc.o
 .v4_bx         0x00214f30        0x0 cetic-6lbr.co
 .v4_bx         0x00214f30        0x0 obj_cc2538dk/webserver.o
 .v4_bx         0x00214f30        0x0 obj_cc2538dk/httpd-simple.o
 .v4_bx         0x00214f30        0x0 obj_cc2538dk/udp-server.o
 .v4_bx         0x00214f30        0x0 obj_cc2538dk/udp-client.o
 .v4_bx         0x00214f30        0x0 obj_cc2538dk/node-info.o
 .v4_bx         0x00214f30        0x0 obj_cc2538dk/coap-server.o
 .v4_bx         0x00214f30        0x0 obj_cc2538dk/block-transfer.o
 .v4_bx         0x00214f30        0x0 obj_cc2538dk/log-6lbr.o
 .v4_bx         0x00214f30        0x0 obj_cc2538dk/rio.o
 .v4_bx         0x00214f30        0x0 obj_cc2538dk/packet-filter.o
 .v4_bx         0x00214f30        0x0 obj_cc2538dk/sicslow-ethernet.o
 .v4_bx         0x00214f30        0x0 obj_cc2538dk/nvm-config.o
 .v4_bx         0x00214f30        0x0 obj_cc2538dk/cc2538dk-init.o
 .v4_bx         0x00214f30        0x0 obj_cc2538dk/cc2538dk-nvm.o
 .v4_bx         0x00214f30        0x0 obj_cc2538dk/enc28j60.o
 .v4_bx         0x00214f30        0x0 obj_cc2538dk/enc28j60-drv.o
 .v4_bx         0x00214f30        0x0 obj_cc2538dk/enc28j60-arch-spi.o
 .v4_bx         0x00214f30        0x0 contiki-cc2538dk.a(er-coap-13.o)
 .v4_bx         0x00214f30        0x0 contiki-cc2538dk.a(er-coap-13-engi)
 .v4_bx         0x00214f30        0x0 contiki-cc2538dk.a(er-coap-13-tran)
 .v4_bx         0x00214f30        0x0 contiki-cc2538dk.a(er-coap-13-obse)
 .v4_bx         0x00214f30        0x0 contiki-cc2538dk.a(er-coap-13-udp.)
 .v4_bx         0x00214f30        0x0 contiki-cc2538dk.a(erbium.o)
 .v4_bx         0x00214f30        0x0 contiki-cc2538dk.a(contiki-main.o)
 .v4_bx         0x00214f30        0x0 contiki-cc2538dk.a(sensors.o)
 .v4_bx         0x00214f30        0x0 contiki-cc2538dk.a(smartrf-sensors)
 .v4_bx         0x00214f30        0x0 contiki-cc2538dk.a(button-sensor.o)
 .v4_bx         0x00214f30        0x0 contiki-cc2538dk.a(adc-sensor.o)
 .v4_bx         0x00214f30        0x0 contiki-cc2538dk.a(clock.o)
 .v4_bx         0x00214f30        0x0 contiki-cc2538dk.a(rtimer-arch.o)
 .v4_bx         0x00214f30        0x0 contiki-cc2538dk.a(uart.o)
 .v4_bx         0x00214f30        0x0 contiki-cc2538dk.a(watchdog.o)
 .v4_bx         0x00214f30        0x0 contiki-cc2538dk.a(nvic.o)
 .v4_bx         0x00214f30        0x0 contiki-cc2538dk.a(cpu.o)
 .v4_bx         0x00214f30        0x0 contiki-cc2538dk.a(sys-ctrl.o)
 .v4_bx         0x00214f30        0x0 contiki-cc2538dk.a(gpio.o)
 .v4_bx         0x00214f30        0x0 contiki-cc2538dk.a(ioc.o)
 .v4_bx         0x00214f30        0x0 contiki-cc2538dk.a(spi.o)
 .v4_bx         0x00214f30        0x0 contiki-cc2538dk.a(adc.o)
 .v4_bx         0x00214f30        0x0 contiki-cc2538dk.a(cc2538-rf.o)
 .v4_bx         0x00214f30        0x0 contiki-cc2538dk.a(udma.o)
 .v4_bx         0x00214f30        0x0 contiki-cc2538dk.a(lpm.o)
 .v4_bx         0x00214f30        0x0 contiki-cc2538dk.a(dbg.o)
 .v4_bx         0x00214f30        0x0 contiki-cc2538dk.a(ieee-addr.o)
 .v4_bx         0x00214f30        0x0 contiki-cc2538dk.a(dbg-printf.o)
 .v4_bx         0x00214f30        0x0 contiki-cc2538dk.a(dbg-snprintf.o)
 .v4_bx         0x00214f30        0x0 contiki-cc2538dk.a(dbg-sprintf.o)
 .v4_bx         0x00214f30        0x0 contiki-cc2538dk.a(strformat.o)
 .v4_bx         0x00214f30        0x0 contiki-cc2538dk.a(autostart.o)
 .v4_bx         0x00214f30        0x0 contiki-cc2538dk.a(ctimer.o)
 .v4_bx         0x00214f30        0x0 contiki-cc2538dk.a(energest.o)
 .v4_bx         0x00214f30        0x0 contiki-cc2538dk.a(etimer.o)
 .v4_bx         0x00214f30        0x0 contiki-cc2538dk.a(process.o)
 .v4_bx         0x00214f30        0x0 contiki-cc2538dk.a(rtimer.o)
 .v4_bx         0x00214f30        0x0 contiki-cc2538dk.a(stimer.o)
 .v4_bx         0x00214f30        0x0 contiki-cc2538dk.a(timer.o)
 .v4_bx         0x00214f30        0x0 contiki-cc2538dk.a(serial-line.o)
 .v4_bx         0x00214f30        0x0 contiki-cc2538dk.a(list.o)
 .v4_bx         0x00214f30        0x0 contiki-cc2538dk.a(memb.o)
 .v4_bx         0x00214f30        0x0 contiki-cc2538dk.a(random.o)
 .v4_bx         0x00214f30        0x0 contiki-cc2538dk.a(ringbuf.o)
 .v4_bx         0x00214f30        0x0 contiki-cc2538dk.a(linkaddr.o)
 .v4_bx         0x00214f30        0x0 contiki-cc2538dk.a(nbr-table.o)
 .v4_bx         0x00214f30        0x0 contiki-cc2538dk.a(netstack.o)
 .v4_bx         0x00214f30        0x0 contiki-cc2538dk.a(packetbuf.o)
 .v4_bx         0x00214f30        0x0 contiki-cc2538dk.a(queuebuf.o)
 .v4_bx         0x00214f30        0x0 contiki-cc2538dk.a(sicslowpan.o)
 .v4_bx         0x00214f30        0x0 contiki-cc2538dk.a(uip6.o)
 .v4_bx         0x00214f30        0x0 contiki-cc2538dk.a(uip-ds6.o)
 .v4_bx         0x00214f30        0x0 contiki-cc2538dk.a(uip-ds6-nbr.o)
 .v4_bx         0x00214f30        0x0 contiki-cc2538dk.a(uip-ds6-route.o)
 .v4_bx         0x00214f30        0x0 contiki-cc2538dk.a(uip-icmp6.o)
 .v4_bx         0x00214f30        0x0 contiki-cc2538dk.a(uip-nd6.o)
 .v4_bx         0x00214f30        0x0 contiki-cc2538dk.a(csma.o)
 .v4_bx         0x00214f30        0x0 contiki-cc2538dk.a(framer-802154.o)
 .v4_bx         0x00214f30        0x0 contiki-cc2538dk.a(mac.o)
 .v4_bx         0x00214f30        0x0 contiki-cc2538dk.a(psock.o)
 .v4_bx         0x00214f30        0x0 contiki-cc2538dk.a(tcpip.o)
 .v4_bx         0x00214f30        0x0 contiki-cc2538dk.a(uip-debug.o)
 .v4_bx         0x00214f30        0x0 contiki-cc2538dk.a(uiplib.o)
 .v4_bx         0x00214f30        0x0 contiki-cc2538dk.a(uip-udp-packet.)
 .v4_bx         0x00214f30        0x0 contiki-cc2538dk.a(rpl.o)
 .v4_bx         0x00214f30        0x0 contiki-cc2538dk.a(rpl-dag.o)
 .v4_bx         0x00214f30        0x0 contiki-cc2538dk.a(rpl-ext-header.)
 .v4_bx         0x00214f30        0x0 contiki-cc2538dk.a(rpl-icmp6.o)
 .v4_bx         0x00214f30        0x0 contiki-cc2538dk.a(rpl-mrhof.o)
 .v4_bx         0x00214f30        0x0 contiki-cc2538dk.a(rpl-timers.o)
 .v4_bx         0x00214f30        0x0 contiki-cc2538dk.a(contikimac.o)
 .v4_bx         0x00214f30        0x0 contiki-cc2538dk.a(leds.o)
 .v4_bx         0x00214f30        0x0 contiki-cc2538dk.a(leds-arch.o)
 .v4_bx         0x00214f30        0x0 contiki-cc2538dk.a(frame802154.o)
 .v4_bx         0x00214f30        0x0 contiki-cc2538dk.a(mac-sequence.o)
 .v4_bx         0x00214f30        0x0 /home/user/CodeSourcery/Sourcery_G++_Lite/bin/../lib/gcc/arm-none-eabi/4.3.2/thumb2/libgcc.a(_aeabi_uldivmod.o)
 .v4_bx         0x00214f30        0x0 /home/user/CodeSourcery/Sourcery_G++_Lite/bin/../lib/gcc/arm-none-eabi/4.3.2/thumb2/libgcc.a(bpabi.o)
 .v4_bx         0x00214f30        0x0 /home/user/CodeSourcery/Sourcery_G++_Lite/bin/../lib/gcc/arm-none-eabi/4.3.2/thumb2/libgcc.a(_dvmd_tls.o)
 .v4_bx         0x00214f30        0x0 /home/user/CodeSourcery/Sourcery_G++_Lite/bin/../lib/gcc/arm-none-eabi/4.3.2/thumb2/libgcc.a(_divdi3.o)
 .v4_bx         0x00214f30        0x0 /home/user/CodeSourcery/Sourcery_G++_Lite/bin/../lib/gcc/arm-none-eabi/4.3.2/thumb2/libgcc.a(_udivdi3.o)
 .v4_bx         0x00214f30        0x0 /home/user/CodeSourcery/Sourcery_G++_Lite/bin/../lib/gcc/arm-none-eabi/4.3.2/thumb2/libgcc.a(_udivsi3.o)
 .v4_bx         0x00214f30        0x0 /home/user/CodeSourcery/Sourcery_G++_Lite/bin/../lib/gcc/arm-none-eabi/4.3.2/thumb2/libgcc.a(_clz.o)
 .v4_bx         0x00214f30        0x0 /home/user/CodeSourcery/Sourcery_G++_Lite/bin/../lib/gcc/arm-none-eabi/4.3.2/../../../../arm-none-eabi/lib/thumb2/libc.a(lib_a-atoi.o)
 .v4_bx         0x00214f30        0x0 /home/user/CodeSourcery/Sourcery_G++_Lite/bin/../lib/gcc/arm-none-eabi/4.3.2/../../../../arm-none-eabi/lib/thumb2/libc.a(lib_a-index.o)
 .v4_bx         0x00214f30        0x0 /home/user/CodeSourcery/Sourcery_G++_Lite/bin/../lib/gcc/arm-none-eabi/4.3.2/../../../../arm-none-eabi/lib/thumb2/libc.a(lib_a-lcltime_r.o)
 .v4_bx         0x00214f30        0x0 /home/user/CodeSourcery/Sourcery_G++_Lite/bin/../lib/gcc/arm-none-eabi/4.3.2/../../../../arm-none-eabi/lib/thumb2/libc.a(lib_a-memchr.o)
 .v4_bx         0x00214f30        0x0 /home/user/CodeSourcery/Sourcery_G++_Lite/bin/../lib/gcc/arm-none-eabi/4.3.2/../../../../arm-none-eabi/lib/thumb2/libc.a(lib_a-memcmp.o)
 .v4_bx         0x00214f30        0x0 /home/user/CodeSourcery/Sourcery_G++_Lite/bin/../lib/gcc/arm-none-eabi/4.3.2/../../../../arm-none-eabi/lib/thumb2/libc.a(lib_a-memcpy.o)
 .v4_bx         0x00214f30        0x0 /home/user/CodeSourcery/Sourcery_G++_Lite/bin/../lib/gcc/arm-none-eabi/4.3.2/../../../../arm-none-eabi/lib/thumb2/libc.a(lib_a-memmove.o)
 .v4_bx         0x00214f30        0x0 /home/user/CodeSourcery/Sourcery_G++_Lite/bin/../lib/gcc/arm-none-eabi/4.3.2/../../../../arm-none-eabi/lib/thumb2/libc.a(lib_a-memset.o)
 .v4_bx         0x00214f30        0x0 /home/user/CodeSourcery/Sourcery_G++_Lite/bin/../lib/gcc/arm-none-eabi/4.3.2/../../../../arm-none-eabi/lib/thumb2/libc.a(lib_a-mktm_r.o)
 .v4_bx         0x00214f30        0x0 /home/user/CodeSourcery/Sourcery_G++_Lite/bin/../lib/gcc/arm-none-eabi/4.3.2/../../../../arm-none-eabi/lib/thumb2/libc.a(lib_a-strchr.o)
 .v4_bx         0x00214f30        0x0 /home/user/CodeSourcery/Sourcery_G++_Lite/bin/../lib/gcc/arm-none-eabi/4.3.2/../../../../arm-none-eabi/lib/thumb2/libc.a(lib_a-strcmp.o)
 .v4_bx         0x00214f30        0x0 /home/user/CodeSourcery/Sourcery_G++_Lite/bin/../lib/gcc/arm-none-eabi/4.3.2/../../../../arm-none-eabi/lib/thumb2/libc.a(lib_a-strcpy.o)
 .v4_bx         0x00214f30        0x0 /home/user/CodeSourcery/Sourcery_G++_Lite/bin/../lib/gcc/arm-none-eabi/4.3.2/../../../../arm-none-eabi/lib/thumb2/libc.a(lib_a-strlen.o)
 .v4_bx         0x00214f30        0x0 /home/user/CodeSourcery/Sourcery_G++_Lite/bin/../lib/gcc/arm-none-eabi/4.3.2/../../../../arm-none-eabi/lib/thumb2/libc.a(lib_a-strncmp.o)
 .v4_bx         0x00214f30        0x0 /home/user/CodeSourcery/Sourcery_G++_Lite/bin/../lib/gcc/arm-none-eabi/4.3.2/../../../../arm-none-eabi/lib/thumb2/libc.a(lib_a-strncpy.o)
 .v4_bx         0x00214f30        0x0 /home/user/CodeSourcery/Sourcery_G++_Lite/bin/../lib/gcc/arm-none-eabi/4.3.2/../../../../arm-none-eabi/lib/thumb2/libc.a(lib_a-strstr.o)
 .v4_bx         0x00214f30        0x0 /home/user/CodeSourcery/Sourcery_G++_Lite/bin/../lib/gcc/arm-none-eabi/4.3.2/../../../../arm-none-eabi/lib/thumb2/libc.a(lib_a-strtol.o)
 .v4_bx         0x00214f30        0x0 /home/user/CodeSourcery/Sourcery_G++_Lite/bin/../lib/gcc/arm-none-eabi/4.3.2/../../../../arm-none-eabi/lib/thumb2/libc.a(lib_a-sysgettod.o)
 .v4_bx         0x00214f30        0x0 /home/user/CodeSourcery/Sourcery_G++_Lite/bin/../lib/gcc/arm-none-eabi/4.3.2/../../../../arm-none-eabi/lib/thumb2/libc.a(lib_a-tzlock.o)
 .v4_bx         0x00214f30        0x0 /home/user/CodeSourcery/Sourcery_G++_Lite/bin/../lib/gcc/arm-none-eabi/4.3.2/../../../../arm-none-eabi/lib/thumb2/libc.a(lib_a-tzvars.o)
 .v4_bx         0x00214f30        0x0 /home/user/CodeSourcery/Sourcery_G++_Lite/bin/../lib/gcc/arm-none-eabi/4.3.2/../../../../arm-none-eabi/lib/thumb2/libc.a(lib_a-ctype_.o)
 .v4_bx         0x00214f30        0x0 /home/user/CodeSourcery/Sourcery_G++_Lite/bin/../lib/gcc/arm-none-eabi/4.3.2/../../../../arm-none-eabi/lib/thumb2/libc.a(lib_a-gettimeofdayr.o)
 .v4_bx         0x00214f30        0x0 /home/user/CodeSourcery/Sourcery_G++_Lite/bin/../lib/gcc/arm-none-eabi/4.3.2/../../../../arm-none-eabi/lib/thumb2/libc.a(lib_a-gettzinfo.o)
 .v4_bx         0x00214f30        0x0 /home/user/CodeSourcery/Sourcery_G++_Lite/bin/../lib/gcc/arm-none-eabi/4.3.2/../../../../arm-none-eabi/lib/thumb2/libc.a(lib_a-impure.o)
 .v4_bx         0x00214f30        0x0 /home/user/CodeSourcery/Sourcery_G++_Lite/bin/../lib/gcc/arm-none-eabi/4.3.2/../../../../arm-none-eabi/lib/thumb2/libc.a(lib_a-reent.o)
 .v4_bx         0x00214f30        0x0 /home/user/CodeSourcery/Sourcery_G++_Lite/bin/../lib/gcc/arm-none-eabi/4.3.2/../../../../arm-none-eabi/lib/thumb2/libc.a(lib_a-freer.o)
 .v4_bx         0x00214f30        0x0 /home/user/CodeSourcery/Sourcery_G++_Lite/bin/../lib/gcc/arm-none-eabi/4.3.2/../../../../arm-none-eabi/lib/thumb2/libc.a(lib_a-mallocr.o)
 .v4_bx         0x00214f30        0x0 /home/user/CodeSourcery/Sourcery_G++_Lite/bin/../lib/gcc/arm-none-eabi/4.3.2/../../../../arm-none-eabi/lib/thumb2/libc.a(lib_a-mlock.o)
 .v4_bx         0x00214f30        0x0 /home/user/CodeSourcery/Sourcery_G++_Lite/bin/../lib/gcc/arm-none-eabi/4.3.2/../../../../arm-none-eabi/lib/thumb2/libc.a(lib_a-sbrkr.o)

.socdata        0x20000000       0x40
 *(SORT(.udma_channel_control_table))
 .udma_channel_control_table
                0x20000000       0x40 contiki-cc2538dk.a(udma.o)

.data           0x20000040      0x397 load address 0x00214f2f
                0x20000040                _data = .
 *(SORT(.data*))
 .data.cetic_6lbr_process
                0x20000040       0x10 cetic-6lbr.co
                0x20000040                cetic_6lbr_process
 .data.webserver_nogui_process
                0x20000050       0x10 obj_cc2538dk/webserver.o
                0x20000050                webserver_nogui_process
 .data.conns    0x20000060        0xc obj_cc2538dk/httpd-simple.o
 .data.udp_server_process
                0x2000006c       0x10 obj_cc2538dk/udp-server.o
                0x2000006c                udp_server_process
 .data.udp_client_process
                0x2000007c       0x10 obj_cc2538dk/udp-client.o
                0x2000007c                udp_client_process
 .data.udp_interval
                0x2000008c        0x4 obj_cc2538dk/udp-client.o
                0x2000008c                udp_interval
 .data.coap_server_process
                0x20000090       0x10 obj_cc2538dk/coap-server.o
                0x20000090                coap_server_process
 .data.enc_watchdog_process
                0x200000a0       0x10 obj_cc2538dk/enc28j60.o
                0x200000a0                enc_watchdog_process
 .data.eth_drv_process
                0x200000b0       0x10 obj_cc2538dk/enc28j60-drv.o
                0x200000b0                eth_drv_process
 .data.coap_error_message
                0x200000c0        0x4 contiki-cc2538dk.a(er-coap-13.o)
                0x200000c0                coap_error_message
 .data.coap_receiver
                0x200000c4       0x10 contiki-cc2538dk.a(er-coap-13-engi)
                0x200000c4                coap_receiver
 .data.resource_well_known_core
                0x200000d4       0x24 contiki-cc2538dk.a(er-coap-13-engi)
                0x200000d4                resource_well_known_core
 .data.transactions_memb
                0x200000f8        0xc contiki-cc2538dk.a(er-coap-13-tran)
 .data.observers_memb
                0x20000104        0xc contiki-cc2538dk.a(er-coap-13-obse)
 .data.rest_manager_process
                0x20000110       0x10 contiki-cc2538dk.a(erbium.o)
                0x20000110                rest_manager_process
 .data.sensors_process
                0x20000120       0x10 contiki-cc2538dk.a(sensors.o)
                0x20000120                sensors_process
 .data.sensors  0x20000130       0x1c contiki-cc2538dk.a(smartrf-sensors)
                0x20000130                sensors
 .data.cc2538_rf_process
                0x2000014c       0x10 contiki-cc2538dk.a(cc2538-rf.o)
                0x2000014c                cc2538_rf_process
 .data.ctxt     0x2000015c        0x8 contiki-cc2538dk.a(dbg-printf.o)
 .data.ctimer_process
                0x20000164       0x10 contiki-cc2538dk.a(ctimer.o)
                0x20000164                ctimer_process
 .data.etimer_process
                0x20000174       0x10 contiki-cc2538dk.a(etimer.o)
                0x20000174                etimer_process
 .data.serial_line_process
                0x20000184       0x10 contiki-cc2538dk.a(serial-line.o)
                0x20000184                serial_line_process
 .data.neighbor_addr_mem
                0x20000194        0xc contiki-cc2538dk.a(nbr-table.o)
 .data.bufmem   0x200001a0        0xc contiki-cc2538dk.a(queuebuf.o)
 .data.refbufmem
                0x200001ac        0xc contiki-cc2538dk.a(queuebuf.o)
 .data.buframmem
                0x200001b8        0xc contiki-cc2538dk.a(queuebuf.o)
 .data.ds6_neighbors
                0x200001c4        0x4 contiki-cc2538dk.a(uip-ds6-nbr.o)
                0x200001c4                ds6_neighbors
 .data.ds6_neighbors_struct
                0x200001c8       0x10 contiki-cc2538dk.a(uip-ds6-nbr.o)
 .data.defaultroutermemb
                0x200001d8        0xc contiki-cc2538dk.a(uip-ds6-route.o)
 .data.nbr_routes_struct
                0x200001e4       0x10 contiki-cc2538dk.a(uip-ds6-route.o)
 .data.routememb
                0x200001f4        0xc contiki-cc2538dk.a(uip-ds6-route.o)
 .data.neighborroutememb
                0x20000200        0xc contiki-cc2538dk.a(uip-ds6-route.o)
 .data.echo_request_handler
                0x2000020c        0xc contiki-cc2538dk.a(uip-icmp6.o)
 .data.echo_reply_handler
                0x20000218        0xc contiki-cc2538dk.a(uip-icmp6.o)
 .data.rs_input_handler
                0x20000224        0xc contiki-cc2538dk.a(uip-nd6.o)
 .data.ns_input_handler
                0x20000230        0xc contiki-cc2538dk.a(uip-nd6.o)
 .data.na_input_handler
                0x2000023c        0xc contiki-cc2538dk.a(uip-nd6.o)
 .data.metadata_memb
                0x20000248        0xc contiki-cc2538dk.a(csma.o)
 .data.packet_memb
                0x20000254        0xc contiki-cc2538dk.a(csma.o)
 .data.neighbor_memb
                0x20000260        0xc contiki-cc2538dk.a(csma.o)
 .data.tcpip_process
                0x2000026c       0x10 contiki-cc2538dk.a(tcpip.o)
                0x2000026c                tcpip_process
 .data.rpl_parents_struct
                0x2000027c       0x10 contiki-cc2538dk.a(rpl-dag.o)
 .data.dao_ack_handler
                0x2000028c        0xc contiki-cc2538dk.a(rpl-icmp6.o)
 .data.dis_handler
                0x20000298        0xc contiki-cc2538dk.a(rpl-icmp6.o)
 .data.dao_handler
                0x200002a4        0xc contiki-cc2538dk.a(rpl-icmp6.o)
 .data.dio_handler
                0x200002b0        0xc contiki-cc2538dk.a(rpl-icmp6.o)
 .data.rpl_mrhof
                0x200002bc       0x1c contiki-cc2538dk.a(rpl-mrhof.o)
                0x200002bc                rpl_mrhof
 .data          0x200002d8        0x8 /home/user/CodeSourcery/Sourcery_G++_Lite/bin/../lib/gcc/arm-none-eabi/4.3.2/../../../../arm-none-eabi/lib/thumb2/libc.a(lib_a-ctype_.o)
                0x200002d8                __ctype_ptr
                0x200002dc                __ctype_ptr__
 .data          0x200002e0       0xf4 /home/user/CodeSourcery/Sourcery_G++_Lite/bin/../lib/gcc/arm-none-eabi/4.3.2/../../../../arm-none-eabi/lib/thumb2/libc.a(lib_a-impure.o)
                0x200002e0                _impure_ptr
 .data.user_dest_port
                0x200003d4        0x2 obj_cc2538dk/udp-client.o
                0x200003d4                user_dest_port
 .data.dao_sequence
                0x200003d6        0x1 contiki-cc2538dk.a(rpl-icmp6.o)
                0x200003d7                _edata = .

.ARM.exidx      0x002152c8       0x10
 *(SORT(.ARM.exidx*))
 .ARM.exidx     0x002152c8        0x8 /home/user/CodeSourcery/Sourcery_G++_Lite/bin/../lib/gcc/arm-none-eabi/4.3.2/thumb2/libgcc.a(_divdi3.o)
 .ARM.exidx     0x002152d0        0x8 /home/user/CodeSourcery/Sourcery_G++_Lite/bin/../lib/gcc/arm-none-eabi/4.3.2/thumb2/libgcc.a(_udivdi3.o)

.bss            0x200003d8     0x6885
                0x200003d8                _bss = .
 *(SORT(.bss*))
 .bss.rt_ticks_startup
                0x200003d8        0x8 contiki-cc2538dk.a(clock.o)
 .bss.rt_ticks_epoch
                0x200003e0        0x8 contiki-cc2538dk.a(clock.o)
 .bss.stack     0x200003e8      0x800 obj_cc2538dk/startup-gcc.o
 .bss.ethernet_ready
                0x20000be8        0x4 cetic-6lbr.co
                0x20000be8                ethernet_ready
 .bss.eth_mac_addr_ready
                0x20000bec        0x4 cetic-6lbr.co
                0x20000bec                eth_mac_addr_ready
 .bss.reboot_timer
                0x20000bf0       0x10 cetic-6lbr.co
 .bss.dr.6093   0x20000c00        0x4 obj_cc2538dk/webserver.o
 .bss.numticks.6095
                0x20000c04        0x4 obj_cc2538dk/webserver.o
 .bss.r.6092    0x20000c08        0x4 obj_cc2538dk/webserver.o
 .bss.redirect  0x20000c0c        0x4 obj_cc2538dk/webserver.o
 .bss.i.5966    0x20000c10        0x4 obj_cc2538dk/webserver.o
 .bss.numticks.5769
                0x20000c14        0x4 obj_cc2538dk/webserver.o
 .bss.i.5837    0x20000c18        0x4 obj_cc2538dk/webserver.o
 .bss.nbr.6094  0x20000c1c        0x4 obj_cc2538dk/webserver.o
 .bss.neighbor.6651
                0x20000c20        0x4 obj_cc2538dk/webserver.o
 .bss.i.5768    0x20000c24        0x4 obj_cc2538dk/webserver.o
 .bss.numticks.5968
                0x20000c28        0x4 obj_cc2538dk/webserver.o
 .bss.numticks.6228
                0x20000c2c        0x4 obj_cc2538dk/webserver.o
 .bss.numticks.5838
                0x20000c30        0x4 obj_cc2538dk/webserver.o
 .bss.i.6091    0x20000c34        0x4 obj_cc2538dk/webserver.o
 .bss.blen      0x20000c38        0x4 obj_cc2538dk/webserver.o
 .bss.j.5967    0x20000c3c        0x4 obj_cc2538dk/webserver.o
 .bss.route.6650
                0x20000c40        0x4 obj_cc2538dk/webserver.o
 .bss.conns_memb_mem
                0x20000c44      0x844 obj_cc2538dk/httpd-simple.o
 .bss.seq_id.4548
                0x20001488        0x4 obj_cc2538dk/udp-server.o
 .bss.server_conn
                0x2000148c        0x4 obj_cc2538dk/udp-server.o
 .bss.et.4752   0x20001490       0x10 obj_cc2538dk/udp-client.o
 .bss.client_conn
                0x200014a0        0x4 obj_cc2538dk/udp-client.o
 .bss.seq_id.4706
                0x200014a4        0x4 obj_cc2538dk/udp-client.o
 .bss.node_info_route_notification
                0x200014a8        0x8 obj_cc2538dk/node-info.o
 .bss.locrtinfo
                0x200014b0        0x4 obj_cc2538dk/rio.o
 .bss.tcpip_inputfunc
                0x200014b4        0x4 obj_cc2538dk/packet-filter.o
 .bss.wireless_outputfunc
                0x200014b8        0x4 obj_cc2538dk/packet-filter.o
 .bss.et.3127   0x200014bc       0x10 obj_cc2538dk/enc28j60.o
 .bss.received_packets
                0x200014cc        0x4 obj_cc2538dk/enc28j60.o
 .bss.sent_packets
                0x200014d0        0x4 obj_cc2538dk/enc28j60.o
 .bss.transaction.5491
                0x200014d4        0x4 contiki-cc2538dk.a(er-coap-13-engi)
 .bss.message.5489
                0x200014d8       0x94 contiki-cc2538dk.a(er-coap-13-engi)
 .bss.response.5490
                0x2000156c       0x94 contiki-cc2538dk.a(er-coap-13-engi)
 .bss.coap_default_context
                0x20001600        0x4 contiki-cc2538dk.a(er-coap-13-engi)
                0x20001600                coap_default_context
 .bss.service_cbk
                0x20001604        0x4 contiki-cc2538dk.a(er-coap-13-engi)
 .bss.transactions_list_list
                0x20001608        0x4 contiki-cc2538dk.a(er-coap-13-tran)
 .bss.transaction_handler_process
                0x2000160c        0x4 contiki-cc2538dk.a(er-coap-13-tran)
 .bss.transactions_memb_memb_mem
                0x20001610      0x300 contiki-cc2538dk.a(er-coap-13-tran)
 .bss.observers_memb_memb_mem
                0x20001910       0x9c contiki-cc2538dk.a(er-coap-13-obse)
 .bss.observers_list_list
                0x200019ac        0x4 contiki-cc2538dk.a(er-coap-13-obse)
 .bss.restful_periodic_services_list
                0x200019b0        0x4 contiki-cc2538dk.a(erbium.o)
 .bss.restful_services_list
                0x200019b4        0x4 contiki-cc2538dk.a(erbium.o)
 .bss.i.1939    0x200019b8        0x4 contiki-cc2538dk.a(sensors.o)
 .bss.events.1940
                0x200019bc        0x4 contiki-cc2538dk.a(sensors.o)
 .bss.debouncetimer
                0x200019c0        0x8 contiki-cc2538dk.a(button-sensor.o)
 .bss.next_trigger
                0x200019c8        0x4 contiki-cc2538dk.a(rtimer-arch.o)
 .bss.input_handler
                0x200019cc        0x8 contiki-cc2538dk.a(uart.o)
 .bss.interrupt_disable
                0x200019d4        0x4 contiki-cc2538dk.a(nvic.o)
 .bss.interrupt_pend
                0x200019d8        0x4 contiki-cc2538dk.a(nvic.o)
 .bss.interrupt_unpend
                0x200019dc        0x4 contiki-cc2538dk.a(nvic.o)
 .bss.interrupt_enable
                0x200019e0        0x4 contiki-cc2538dk.a(nvic.o)
 .bss.gpio_callbacks
                0x200019e4       0x80 contiki-cc2538dk.a(gpio.o)
 .bss.ioc_sel   0x20001a64        0x4 contiki-cc2538dk.a(ioc.o)
 .bss.ioc_over  0x20001a68        0x4 contiki-cc2538dk.a(ioc.o)
 .bss.periph_permit_pm1_funcs
                0x20001a6c        0x8 contiki-cc2538dk.a(lpm.o)
 .bss.ctimer_list_list
                0x20001a74        0x4 contiki-cc2538dk.a(ctimer.o)
 .bss.timerlist
                0x20001a78        0x4 contiki-cc2538dk.a(etimer.o)
 .bss.next_expiration
                0x20001a7c        0x4 contiki-cc2538dk.a(etimer.o)
 .bss.receiver.2487
                0x20001a80        0x4 contiki-cc2538dk.a(process.o)
 .bss.process_current
                0x20001a84        0x4 contiki-cc2538dk.a(process.o)
                0x20001a84                process_current
 .bss.p.2488    0x20001a88        0x4 contiki-cc2538dk.a(process.o)
 .bss.process_list
                0x20001a8c        0x4 contiki-cc2538dk.a(process.o)
                0x20001a8c                process_list
 .bss.events    0x20001a90      0x180 contiki-cc2538dk.a(process.o)
 .bss.data.2486
                0x20001c10        0x4 contiki-cc2538dk.a(process.o)
 .bss.next_rtimer
                0x20001c14        0x4 contiki-cc2538dk.a(rtimer.o)
 .bss.rxbuf     0x20001c18        0x8 contiki-cc2538dk.a(serial-line.o)
 .bss.ptr.1905  0x20001c20        0x4 contiki-cc2538dk.a(serial-line.o)
 .bss.nbr_table_keys_list
                0x20001c24        0x4 contiki-cc2538dk.a(nbr-table.o)
 .bss.num_tables
                0x20001c28        0x4 contiki-cc2538dk.a(nbr-table.o)
 .bss.neighbor_addr_mem_memb_mem
                0x20001c2c       0xf0 contiki-cc2538dk.a(nbr-table.o)
 .bss.all_tables
                0x20001d1c       0x20 contiki-cc2538dk.a(nbr-table.o)
 .bss.packetbufptr
                0x20001d3c        0x4 contiki-cc2538dk.a(packetbuf.o)
 .bss.bufmem_memb_mem
                0x20001d40       0x20 contiki-cc2538dk.a(queuebuf.o)
 .bss.refbufmem_memb_mem
                0x20001d60       0x78 contiki-cc2538dk.a(queuebuf.o)
 .bss.context   0x20001dd8        0x4 contiki-cc2538dk.a(sicslowpan.o)
 .bss.last_rssi
                0x20001ddc        0x4 contiki-cc2538dk.a(sicslowpan.o)
 .bss.hc06_ptr  0x20001de0        0x4 contiki-cc2538dk.a(sicslowpan.o)
 .bss.last_tx_status
                0x20001de4        0x4 contiki-cc2538dk.a(sicslowpan.o)
 .bss.reass_timer
                0x20001de8        0x8 contiki-cc2538dk.a(sicslowpan.o)
 .bss.packetbuf_ptr
                0x20001df0        0x4 contiki-cc2538dk.a(sicslowpan.o)
 .bss.sicslowpan_aligned_buf
                0x20001df4      0x500 contiki-cc2538dk.a(sicslowpan.o)
 .bss.packetbuf_payload_len
                0x200022f4        0x4 contiki-cc2538dk.a(sicslowpan.o)
 .bss.callback  0x200022f8        0x4 contiki-cc2538dk.a(sicslowpan.o)
 .bss.locmaddr  0x200022fc        0x4 contiki-cc2538dk.a(uip-ds6.o)
 .bss.locprefix
                0x20002300        0x4 contiki-cc2538dk.a(uip-ds6.o)
 .bss.locaddr   0x20002304        0x4 contiki-cc2538dk.a(uip-ds6.o)
 .bss._ds6_neighbors_mem
                0x20002308      0x2d0 contiki-cc2538dk.a(uip-ds6-nbr.o)
 .bss.defaultroutermemb_memb_mem
                0x200025d8       0x40 contiki-cc2538dk.a(uip-ds6-route.o)
 .bss.num_routes
                0x20002618        0x4 contiki-cc2538dk.a(uip-ds6-route.o)
 .bss.neighborroutememb_memb_mem
                0x2000261c      0x320 contiki-cc2538dk.a(uip-ds6-route.o)
 .bss.defaultrouterlist_list
                0x2000293c        0x4 contiki-cc2538dk.a(uip-ds6-route.o)
 .bss._nbr_routes_mem
                0x20002940       0xa0 contiki-cc2538dk.a(uip-ds6-route.o)
 .bss.routememb_memb_mem
                0x200029e0      0xfa0 contiki-cc2538dk.a(uip-ds6-route.o)
 .bss.notificationlist_list
                0x20003980        0x4 contiki-cc2538dk.a(uip-ds6-route.o)
 .bss.routelist_list
                0x20003984        0x4 contiki-cc2538dk.a(uip-ds6-route.o)
 .bss.echo_reply_callback_list_list
                0x20003988        0x4 contiki-cc2538dk.a(uip-icmp6.o)
 .bss.input_handler_list_list
                0x2000398c        0x4 contiki-cc2538dk.a(uip-icmp6.o)
 .bss.rtinfo    0x20003990        0x4 contiki-cc2538dk.a(uip-nd6.o)
 .bss.prefix    0x20003994        0x4 contiki-cc2538dk.a(uip-nd6.o)
 .bss.defrt     0x20003998        0x4 contiki-cc2538dk.a(uip-nd6.o)
 .bss.nbr       0x2000399c        0x4 contiki-cc2538dk.a(uip-nd6.o)
 .bss.nd6_opt_llao
                0x200039a0        0x4 contiki-cc2538dk.a(uip-nd6.o)
 .bss.addr      0x200039a4        0x4 contiki-cc2538dk.a(uip-nd6.o)
 .bss.neighbor_memb_memb_mem
                0x200039a8       0x70 contiki-cc2538dk.a(csma.o)
 .bss.metadata_memb_memb_mem
                0x20003a18       0x60 contiki-cc2538dk.a(csma.o)
 .bss.neighbor_list_list
                0x20003a78        0x4 contiki-cc2538dk.a(csma.o)
 .bss.packet_memb_memb_mem
                0x20003a7c       0x60 contiki-cc2538dk.a(csma.o)
 .bss.inputfunc
                0x20003adc        0x4 contiki-cc2538dk.a(tcpip.o)
 .bss.s         0x20003ae0       0x44 contiki-cc2538dk.a(tcpip.o)
 .bss.periodic  0x20003b24       0x10 contiki-cc2538dk.a(tcpip.o)
 .bss.outputfunc
                0x20003b34        0x4 contiki-cc2538dk.a(tcpip.o)
 .bss._rpl_parents_mem
                0x20003b38      0x140 contiki-cc2538dk.a(rpl-dag.o)
 .bss.periodic_timer
                0x20003c78       0x20 contiki-cc2538dk.a(rpl-timers.o)
 .bss.cycle_start
                0x20003c98        0x4 contiki-cc2538dk.a(contikimac.o)
 .bss.we_are_receiving_burst
                0x20003c9c        0x4 contiki-cc2538dk.a(contikimac.o)
 .bss.ct.3899   0x20003ca0       0x20 contiki-cc2538dk.a(contikimac.o)
 .bss.start.3680
                0x20003cc0        0x4 contiki-cc2538dk.a(contikimac.o)
 .bss.rt        0x20003cc4        0xc contiki-cc2538dk.a(contikimac.o)
 .bss.t0.3674   0x20003cd0        0x4 contiki-cc2538dk.a(contikimac.o)
 .bss.numtimes.6128
                0x20003cd4        0x2 obj_cc2538dk/webserver.o
 .bss.ipaddr.6652
                0x20003cd6       0x10 obj_cc2538dk/webserver.o
 .bss.numtimes.5777
                0x20003ce6        0x2 obj_cc2538dk/webserver.o
 .bss.numtimes.5985
                0x20003ce8        0x2 obj_cc2538dk/webserver.o
 .bss.numtimes.6247
                0x20003cea        0x2 obj_cc2538dk/webserver.o
 .bss.numtimes.5854
                0x20003cec        0x2 obj_cc2538dk/webserver.o
 .bss.NextPacketPtr
                0x20003cee        0x2 obj_cc2538dk/enc28j60.o
 .bss.current_mid
                0x20003cf0        0x2 contiki-cc2538dk.a(er-coap-13.o)
 .bss.buflen    0x20003cf2        0x2 contiki-cc2538dk.a(packetbuf.o)
 .bss.packetbuf_aligned
                0x20003cf4       0xb2 contiki-cc2538dk.a(packetbuf.o)
 .bss.bufptr    0x20003da6        0x2 contiki-cc2538dk.a(packetbuf.o)
 .bss.buframmem_memb_mem
                0x20003da8      0x690 contiki-cc2538dk.a(queuebuf.o)
 .bss.reass_tag
                0x20004438        0x2 contiki-cc2538dk.a(sicslowpan.o)
 .bss.sicslowpan_len
                0x2000443a        0x2 contiki-cc2538dk.a(sicslowpan.o)
 .bss.my_tag    0x2000443c        0x2 contiki-cc2538dk.a(sicslowpan.o)
 .bss.processed_ip_in_len
                0x2000443e        0x2 contiki-cc2538dk.a(sicslowpan.o)
 .bss.tmp16     0x20004440        0x2 contiki-cc2538dk.a(uip6.o)
 .bss.lastport  0x20004442        0x2 contiki-cc2538dk.a(uip6.o)
 .bss.loc_fipaddr
                0x20004444       0x10 contiki-cc2538dk.a(uip-ds6.o)
 .bss.rand_time
                0x20004454        0x2 contiki-cc2538dk.a(uip-ds6.o)
 .bss.tmp_ipaddr
                0x20004456       0x10 contiki-cc2538dk.a(uip-icmp6.o)
 .bss.seqno.2933
                0x20004466        0x2 contiki-cc2538dk.a(csma.o)
 .bss.next_dis  0x20004468        0x2 contiki-cc2538dk.a(rpl-timers.o)
 .bss.pt        0x2000446a        0x2 contiki-cc2538dk.a(contikimac.o)
 .bss.buf       0x2000446c      0x200 obj_cc2538dk/webserver.o
 .bss.conns_memb_count
                0x2000466c        0x1 obj_cc2538dk/httpd-simple.o
 .bss.use_user_dest_addr
                0x2000466d        0x1 obj_cc2538dk/udp-client.o
                0x2000466d                use_user_dest_addr
 .bss.udp_client_run
                0x2000466e        0x1 obj_cc2538dk/udp-client.o
                0x2000466e                udp_client_run
 .bss.prefixCounter
                0x2000466f        0x1 obj_cc2538dk/sicslow-ethernet.o
                0x2000466f                prefixCounter
 .bss.Enc28j60Bank
                0x20004670        0x1 obj_cc2538dk/enc28j60.o
 .bss.enc_mac_addr
                0x20004671        0x6 obj_cc2538dk/enc28j60.o
 .bss.initialized
                0x20004677        0x1 obj_cc2538dk/enc28j60.o
 .bss.coap_error_code
                0x20004678        0x1 contiki-cc2538dk.a(er-coap-13.o)
                0x20004678                coap_error_code
 .bss.transactions_memb_memb_count
                0x20004679        0x4 contiki-cc2538dk.a(er-coap-13-tran)
 .bss.content.5214
                0x2000467d       0x10 contiki-cc2538dk.a(er-coap-13-obse)
 .bss.observers_memb_memb_count
                0x2000468d        0x3 contiki-cc2538dk.a(er-coap-13-obse)
 .bss.num_sensors
                0x20004690        0x1 contiki-cc2538dk.a(sensors.o)
 .bss.rf_flags  0x20004691        0x1 contiki-cc2538dk.a(cc2538-rf.o)
 .bss.max_pm    0x20004692        0x1 contiki-cc2538dk.a(lpm.o)
 .bss.initialized
                0x20004693        0x1 contiki-cc2538dk.a(ctimer.o)
 .bss.fevent    0x20004694        0x1 contiki-cc2538dk.a(process.o)
 .bss.ev.2485   0x20004695        0x1 contiki-cc2538dk.a(process.o)
 .bss.nevents   0x20004696        0x1 contiki-cc2538dk.a(process.o)
 .bss.lastevent
                0x20004697        0x1 contiki-cc2538dk.a(process.o)
 .bss.snum.2531
                0x20004698        0x1 contiki-cc2538dk.a(process.o)
 .bss.poll_requested
                0x20004699        0x1 contiki-cc2538dk.a(process.o)
 .bss.rxbuf_data
                0x2000469a       0x80 contiki-cc2538dk.a(serial-line.o)
 .bss.overflow.1894
                0x2000471a        0x1 contiki-cc2538dk.a(serial-line.o)
 .bss.buf.1904  0x2000471b       0x80 contiki-cc2538dk.a(serial-line.o)
 .bss.neighbor_addr_mem_memb_count
                0x2000479b       0x14 contiki-cc2538dk.a(nbr-table.o)
 .bss.locked_map
                0x200047af       0x14 contiki-cc2538dk.a(nbr-table.o)
 .bss.used_map  0x200047c3       0x14 contiki-cc2538dk.a(nbr-table.o)
 .bss.hdrptr    0x200047d7        0x1 contiki-cc2538dk.a(packetbuf.o)
 .bss.buframmem_memb_count
                0x200047d8        0x8 contiki-cc2538dk.a(queuebuf.o)
 .bss.refbufmem_memb_count
                0x200047e0        0x2 contiki-cc2538dk.a(queuebuf.o)
 .bss.bufmem_memb_count
                0x200047e2        0x8 contiki-cc2538dk.a(queuebuf.o)
 .bss.uncomp_hdr_len
                0x200047ea        0x1 contiki-cc2538dk.a(sicslowpan.o)
 .bss.addr_contexts
                0x200047eb        0xa contiki-cc2538dk.a(sicslowpan.o)
 .bss.packetbuf_hdr_len
                0x200047f5        0x1 contiki-cc2538dk.a(sicslowpan.o)
 .bss.uip_ext_len
                0x200047f6        0x1 contiki-cc2538dk.a(uip6.o)
                0x200047f6                uip_ext_len
 .bss.uip_ext_bitmap
                0x200047f7        0x1 contiki-cc2538dk.a(uip6.o)
                0x200047f7                uip_ext_bitmap
 .bss.iss       0x200047f8        0x4 contiki-cc2538dk.a(uip6.o)
 .bss.uip_ext_opt_offset
                0x200047fc        0x1 contiki-cc2538dk.a(uip6.o)
                0x200047fc                uip_ext_opt_offset
 .bss.c         0x200047fd        0x1 contiki-cc2538dk.a(uip6.o)
 .bss.opt       0x200047fe        0x1 contiki-cc2538dk.a(uip6.o)
 .bss.racount   0x200047ff        0x1 contiki-cc2538dk.a(uip-ds6.o)
 .bss.defaultroutermemb_memb_count
                0x20004800        0x2 contiki-cc2538dk.a(uip-ds6-route.o)
 .bss.neighborroutememb_memb_count
                0x20004802       0x64 contiki-cc2538dk.a(uip-ds6-route.o)
 .bss.routememb_memb_count
                0x20004866       0x64 contiki-cc2538dk.a(uip-ds6-route.o)
 .bss.nd6_opt_offset
                0x200048ca        0x1 contiki-cc2538dk.a(uip-nd6.o)
 .bss.packet_memb_memb_count
                0x200048cb        0x8 contiki-cc2538dk.a(csma.o)
 .bss.initialized.2932
                0x200048d3        0x1 contiki-cc2538dk.a(csma.o)
 .bss.metadata_memb_memb_count
                0x200048d4        0x8 contiki-cc2538dk.a(csma.o)
 .bss.neighbor_memb_memb_count
                0x200048dc        0x2 contiki-cc2538dk.a(csma.o)
 .bss.mac_dsn   0x200048de        0x1 contiki-cc2538dk.a(framer-802154.o)
 .bss.initialized
                0x200048df        0x1 contiki-cc2538dk.a(framer-802154.o)
 .bss.i.5140    0x200048e0        0x1 contiki-cc2538dk.a(tcpip.o)
 .bss.i.4968    0x200048e1        0x1 contiki-cc2538dk.a(tcpip.o)
 .bss.i.5115    0x200048e2        0x1 contiki-cc2538dk.a(tcpip.o)
 .bss.i.5022    0x200048e3        0x1 contiki-cc2538dk.a(tcpip.o)
 .bss.mode      0x200048e4        0x1 contiki-cc2538dk.a(rpl.o)
 .bss.dio_send_ok
                0x200048e5        0x1 contiki-cc2538dk.a(rpl-timers.o)
 .bss.contikimac_keep_radio_on
                0x200048e6        0x1 contiki-cc2538dk.a(contikimac.o)
 .bss.packet_seen.3673
                0x200048e7        0x1 contiki-cc2538dk.a(contikimac.o)
 .bss.radio_is_on
                0x200048e8        0x1 contiki-cc2538dk.a(contikimac.o)
 .bss.we_are_sending
                0x200048e9        0x1 contiki-cc2538dk.a(contikimac.o)
 .bss.periods.3682
                0x200048ea        0x1 contiki-cc2538dk.a(contikimac.o)
 .bss.silence_periods.3681
                0x200048eb        0x1 contiki-cc2538dk.a(contikimac.o)
 .bss.contikimac_is_on
                0x200048ec        0x1 contiki-cc2538dk.a(contikimac.o)
 .bss.count.3675
                0x200048ed        0x1 contiki-cc2538dk.a(contikimac.o)
 .bss.leds      0x200048ee        0x1 contiki-cc2538dk.a(leds.o)
 .bss.invert    0x200048ef        0x1 contiki-cc2538dk.a(leds.o)
 .bss.received_seqnos
                0x200048f0       0x90 contiki-cc2538dk.a(mac-sequence.o)
 *(SORT(COMMON))
 COMMON         0x20004980       0x92 cetic-6lbr.co
                0x20004980                eth_mac_addr
                0x20004986                wsn_net_prefix
                0x20004996                wsn_ip_local_addr
                0x200049a6                wsn_ip_addr
                0x200049b6                eth_ip_addr
                0x200049c6                wsn_mac_addr
                0x200049ce                eth_net_prefix
                0x200049de                wsn_net_prefix_len
                0x200049df                eth_mac64_addr
                0x200049e8                cetic_6lbr_startup
                0x200049ec                eth_dft_router
                0x200049fc                cetic_dag
                0x20004a00                eth_ip_local_addr
                0x20004a10                cetic_6lbr_restart_type
                0x20004a11                cetic_6lbr_restart_event
 *fill*         0x20004a12        0x2 00
 COMMON         0x20004a14     0x1450 obj_cc2538dk/node-info.o
                0x20004a14                node_info_table
 COMMON         0x20005e64       0x18 obj_cc2538dk/rio.o
                0x20005e64                uip_ds6_route_info_list
 COMMON         0x20005e7c       0x80 obj_cc2538dk/nvm-config.o
                0x20005e7c                nvm_data
 COMMON         0x20005efc      0x864 contiki-cc2538dk.a(uip6.o)
                0x20005efc                uip_len
                0x20005f00                uip_sappdata
                0x20005f04                uip_acc32
                0x20005f08                uip_lladdr
                0x20005f10                uip_aligned_buf
                0x20006410                uip_flags
                0x20006414                uip_next_hdr
                0x20006418                uip_udp_conn
                0x2000641c                uip_appdata
                0x20006420                uip_conn
                0x20006424                uip_conns
                0x20006604                uip_icmp6_conns
                0x2000660c                uip_listenports
                0x2000661c                uip_slen
                0x20006620                uip_udp_conns
 COMMON         0x20006760      0x250 contiki-cc2538dk.a(uip-ds6.o)
                0x20006760                uip_ds6_timer_ra
                0x20006768                uip_ds6_if
                0x2000693c                uip_ds6_netif_addr_list_offset
                0x2000693d                uip_ds6_addr_size
                0x20006940                uip_ds6_prefix_list
                0x200069a0                uip_ds6_timer_periodic
 COMMON         0x200069b0       0x24 contiki-cc2538dk.a(csma.o)
                0x200069b0                csma_noack
                0x200069b4                neighbor_overflow
                0x200069b8                packet_overflow
                0x200069bc                csma_retransmissions
                0x200069c0                csma_received_packets
                0x200069c4                csma_dropped
                0x200069c8                csma_deferred
                0x200069cc                csma_collisions
                0x200069d0                csma_sent_packets
 COMMON         0x200069d4      0x110 contiki-cc2538dk.a(rpl-dag.o)
                0x200069d4                default_instance
                0x200069d8                instance_table
 COMMON         0x20006ae4       0x20 obj_cc2538dk/udp-client.o
                0x20006ae4                user_dest_addr
                0x20006af4                dest_addr
 COMMON         0x20006b04       0x50 contiki-cc2538dk.a(packetbuf.o)
                0x20006b04                packetbuf_addrs
                0x20006b24                packetbuf_attrs
 COMMON         0x20006b54       0xe0 obj_cc2538dk/sicslow-ethernet.o
                0x20006b54                prefixBuffer
                0x20006bb4                raw_buf
 COMMON         0x20006c34        0xe obj_cc2538dk/enc28j60-drv.o
                0x20006c34                ll_header
 COMMON         0x20006c42        0x1 contiki-cc2538dk.a(sensors.o)
                0x20006c42                sensors_event
 COMMON         0x20006c43        0x7 contiki-cc2538dk.a(smartrf-sensors)
                0x20006c43                sensors_flags
 COMMON         0x20006c4a        0x1 contiki-cc2538dk.a(serial-line.o)
                0x20006c4a                serial_line_event_message
 COMMON         0x20006c4b        0x8 contiki-cc2538dk.a(linkaddr.o)
                0x20006c4b                linkaddr_node_addr
 COMMON         0x20006c53        0x8 contiki-cc2538dk.a(sicslowpan.o)
                0x20006c53                frag_sender
 COMMON         0x20006c5b        0x2 contiki-cc2538dk.a(tcpip.o)
                0x20006c5b                tcpip_event
                0x20006c5c                tcpip_icmp6_event
                0x20006c5d                _ebss = .

.flashcca       0x0027ffd4       0x2c
 *(SORT(.flashcca))
 .flashcca      0x0027ffd4       0x2c obj_cc2538dk/startup-gcc.o
                0x0027ffd4                __cca
OUTPUT(cetic-6lbr.elf elf32-littlearm)

.comment        0x00000000      0xf6c
 .comment       0x00000000       0x2a obj_cc2538dk/startup-gcc.o
 .comment       0x0000002a       0x2a cetic-6lbr.co
 .comment       0x00000054       0x2a obj_cc2538dk/webserver.o
 .comment       0x0000007e       0x2a obj_cc2538dk/httpd-simple.o
 .comment       0x000000a8       0x2a obj_cc2538dk/udp-server.o
 .comment       0x000000d2       0x2a obj_cc2538dk/udp-client.o
 .comment       0x000000fc       0x2a obj_cc2538dk/node-info.o
 .comment       0x00000126       0x2a obj_cc2538dk/coap-server.o
 .comment       0x00000150       0x2a obj_cc2538dk/block-transfer.o
 .comment       0x0000017a       0x2a obj_cc2538dk/log-6lbr.o
 .comment       0x000001a4       0x2a obj_cc2538dk/rio.o
 .comment       0x000001ce       0x2a obj_cc2538dk/packet-filter.o
 .comment       0x000001f8       0x2a obj_cc2538dk/sicslow-ethernet.o
 .comment       0x00000222       0x2a obj_cc2538dk/nvm-config.o
 .comment       0x0000024c       0x2a obj_cc2538dk/cc2538dk-init.o
 .comment       0x00000276       0x2a obj_cc2538dk/cc2538dk-nvm.o
 .comment       0x000002a0       0x2a obj_cc2538dk/enc28j60.o
 .comment       0x000002ca       0x2a obj_cc2538dk/enc28j60-drv.o
 .comment       0x000002f4       0x2a obj_cc2538dk/enc28j60-arch-spi.o
 .comment       0x0000031e       0x2a contiki-cc2538dk.a(er-coap-13.o)
 .comment       0x00000348       0x2a contiki-cc2538dk.a(er-coap-13-engi)
 .comment       0x00000372       0x2a contiki-cc2538dk.a(er-coap-13-tran)
 .comment       0x0000039c       0x2a contiki-cc2538dk.a(er-coap-13-obse)
 .comment       0x000003c6       0x2a contiki-cc2538dk.a(er-coap-13-udp.)
 .comment       0x000003f0       0x2a contiki-cc2538dk.a(erbium.o)
 .comment       0x0000041a       0x2a contiki-cc2538dk.a(contiki-main.o)
 .comment       0x00000444       0x2a contiki-cc2538dk.a(sensors.o)
 .comment       0x0000046e       0x2a contiki-cc2538dk.a(smartrf-sensors)
 .comment       0x00000498       0x2a contiki-cc2538dk.a(button-sensor.o)
 .comment       0x000004c2       0x2a contiki-cc2538dk.a(adc-sensor.o)
 .comment       0x000004ec       0x2a contiki-cc2538dk.a(clock.o)
 .comment       0x00000516       0x2a contiki-cc2538dk.a(rtimer-arch.o)
 .comment       0x00000540       0x2a contiki-cc2538dk.a(uart.o)
 .comment       0x0000056a       0x2a contiki-cc2538dk.a(watchdog.o)
 .comment       0x00000594       0x2a contiki-cc2538dk.a(nvic.o)
 .comment       0x000005be       0x2a contiki-cc2538dk.a(cpu.o)
 .comment       0x000005e8       0x2a contiki-cc2538dk.a(sys-ctrl.o)
 .comment       0x00000612       0x2a contiki-cc2538dk.a(gpio.o)
 .comment       0x0000063c       0x2a contiki-cc2538dk.a(ioc.o)
 .comment       0x00000666       0x2a contiki-cc2538dk.a(spi.o)
 .comment       0x00000690       0x2a contiki-cc2538dk.a(adc.o)
 .comment       0x000006ba       0x2a contiki-cc2538dk.a(cc2538-rf.o)
 .comment       0x000006e4       0x2a contiki-cc2538dk.a(udma.o)
 .comment       0x0000070e       0x2a contiki-cc2538dk.a(lpm.o)
 .comment       0x00000738       0x2a contiki-cc2538dk.a(dbg.o)
 .comment       0x00000762       0x2a contiki-cc2538dk.a(ieee-addr.o)
 .comment       0x0000078c       0x2a contiki-cc2538dk.a(dbg-printf.o)
 .comment       0x000007b6       0x2a contiki-cc2538dk.a(dbg-snprintf.o)
 .comment       0x000007e0       0x2a contiki-cc2538dk.a(dbg-sprintf.o)
 .comment       0x0000080a       0x2a contiki-cc2538dk.a(strformat.o)
 .comment       0x00000834       0x2a contiki-cc2538dk.a(autostart.o)
 .comment       0x0000085e       0x2a contiki-cc2538dk.a(ctimer.o)
 .comment       0x00000888       0x2a contiki-cc2538dk.a(energest.o)
 .comment       0x000008b2       0x2a contiki-cc2538dk.a(etimer.o)
 .comment       0x000008dc       0x2a contiki-cc2538dk.a(process.o)
 .comment       0x00000906       0x2a contiki-cc2538dk.a(rtimer.o)
 .comment       0x00000930       0x2a contiki-cc2538dk.a(stimer.o)
 .comment       0x0000095a       0x2a contiki-cc2538dk.a(timer.o)
 .comment       0x00000984       0x2a contiki-cc2538dk.a(serial-line.o)
 .comment       0x000009ae       0x2a contiki-cc2538dk.a(list.o)
 .comment       0x000009d8       0x2a contiki-cc2538dk.a(memb.o)
 .comment       0x00000a02       0x2a contiki-cc2538dk.a(random.o)
 .comment       0x00000a2c       0x2a contiki-cc2538dk.a(ringbuf.o)
 .comment       0x00000a56       0x2a contiki-cc2538dk.a(linkaddr.o)
 .comment       0x00000a80       0x2a contiki-cc2538dk.a(nbr-table.o)
 .comment       0x00000aaa       0x2a contiki-cc2538dk.a(netstack.o)
 .comment       0x00000ad4       0x2a contiki-cc2538dk.a(packetbuf.o)
 .comment       0x00000afe       0x2a contiki-cc2538dk.a(queuebuf.o)
 .comment       0x00000b28       0x2a contiki-cc2538dk.a(sicslowpan.o)
 .comment       0x00000b52       0x2a contiki-cc2538dk.a(uip6.o)
 .comment       0x00000b7c       0x2a contiki-cc2538dk.a(uip-ds6.o)
 .comment       0x00000ba6       0x2a contiki-cc2538dk.a(uip-ds6-nbr.o)
 .comment       0x00000bd0       0x2a contiki-cc2538dk.a(uip-ds6-route.o)
 .comment       0x00000bfa       0x2a contiki-cc2538dk.a(uip-icmp6.o)
 .comment       0x00000c24       0x2a contiki-cc2538dk.a(uip-nd6.o)
 .comment       0x00000c4e       0x2a contiki-cc2538dk.a(csma.o)
 .comment       0x00000c78       0x2a contiki-cc2538dk.a(framer-802154.o)
 .comment       0x00000ca2       0x2a contiki-cc2538dk.a(mac.o)
 .comment       0x00000ccc       0x2a contiki-cc2538dk.a(psock.o)
 .comment       0x00000cf6       0x2a contiki-cc2538dk.a(tcpip.o)
 .comment       0x00000d20       0x2a contiki-cc2538dk.a(uip-debug.o)
 .comment       0x00000d4a       0x2a contiki-cc2538dk.a(uiplib.o)
 .comment       0x00000d74       0x2a contiki-cc2538dk.a(uip-udp-packet.)
 .comment       0x00000d9e       0x2a contiki-cc2538dk.a(rpl.o)
 .comment       0x00000dc8       0x2a contiki-cc2538dk.a(rpl-dag.o)
 .comment       0x00000df2       0x2a contiki-cc2538dk.a(rpl-ext-header.)
 .comment       0x00000e1c       0x2a contiki-cc2538dk.a(rpl-icmp6.o)
 .comment       0x00000e46       0x2a contiki-cc2538dk.a(rpl-mrhof.o)
 .comment       0x00000e70       0x2a contiki-cc2538dk.a(rpl-timers.o)
 .comment       0x00000e9a       0x2a contiki-cc2538dk.a(contikimac.o)
 .comment       0x00000ec4       0x2a contiki-cc2538dk.a(leds.o)
 .comment       0x00000eee       0x2a contiki-cc2538dk.a(leds-arch.o)
 .comment       0x00000f18       0x2a contiki-cc2538dk.a(frame802154.o)
 .comment       0x00000f42       0x2a contiki-cc2538dk.a(mac-sequence.o)

.ARM.attributes
                0x00000000       0x31
 .ARM.attributes
                0x00000000       0x31 obj_cc2538dk/startup-gcc.o
 .ARM.attributes
                0x00000031       0x31 cetic-6lbr.co
 .ARM.attributes
                0x00000062       0x31 obj_cc2538dk/webserver.o
 .ARM.attributes
                0x00000093       0x31 obj_cc2538dk/httpd-simple.o
 .ARM.attributes
                0x000000c4       0x31 obj_cc2538dk/udp-server.o
 .ARM.attributes
                0x000000f5       0x31 obj_cc2538dk/udp-client.o
 .ARM.attributes
                0x00000126       0x31 obj_cc2538dk/node-info.o
 .ARM.attributes
                0x00000157       0x31 obj_cc2538dk/coap-server.o
 .ARM.attributes
                0x00000188       0x31 obj_cc2538dk/block-transfer.o
 .ARM.attributes
                0x000001b9       0x31 obj_cc2538dk/log-6lbr.o
 .ARM.attributes
                0x000001ea       0x31 obj_cc2538dk/rio.o
 .ARM.attributes
                0x0000021b       0x31 obj_cc2538dk/packet-filter.o
 .ARM.attributes
                0x0000024c       0x31 obj_cc2538dk/sicslow-ethernet.o
 .ARM.attributes
                0x0000027d       0x31 obj_cc2538dk/nvm-config.o
 .ARM.attributes
                0x000002ae       0x31 obj_cc2538dk/cc2538dk-init.o
 .ARM.attributes
                0x000002df       0x31 obj_cc2538dk/cc2538dk-nvm.o
 .ARM.attributes
                0x00000310       0x31 obj_cc2538dk/enc28j60.o
 .ARM.attributes
                0x00000341       0x31 obj_cc2538dk/enc28j60-drv.o
 .ARM.attributes
                0x00000372       0x31 obj_cc2538dk/enc28j60-arch-spi.o
 .ARM.attributes
                0x000003a3       0x31 contiki-cc2538dk.a(er-coap-13.o)
 .ARM.attributes
                0x000003d4       0x31 contiki-cc2538dk.a(er-coap-13-engi)
 .ARM.attributes
                0x00000405       0x31 contiki-cc2538dk.a(er-coap-13-tran)
 .ARM.attributes
                0x00000436       0x31 contiki-cc2538dk.a(er-coap-13-obse)
 .ARM.attributes
                0x00000467       0x31 contiki-cc2538dk.a(er-coap-13-udp.)
 .ARM.attributes
                0x00000498       0x31 contiki-cc2538dk.a(erbium.o)
 .ARM.attributes
                0x000004c9       0x31 contiki-cc2538dk.a(contiki-main.o)
 .ARM.attributes
                0x000004fa       0x31 contiki-cc2538dk.a(sensors.o)
 .ARM.attributes
                0x0000052b       0x2f contiki-cc2538dk.a(smartrf-sensors)
 .ARM.attributes
                0x0000055a       0x31 contiki-cc2538dk.a(button-sensor.o)
 .ARM.attributes
                0x0000058b       0x31 contiki-cc2538dk.a(adc-sensor.o)
 .ARM.attributes
                0x000005bc       0x31 contiki-cc2538dk.a(clock.o)
 .ARM.attributes
                0x000005ed       0x31 contiki-cc2538dk.a(rtimer-arch.o)
 .ARM.attributes
                0x0000061e       0x31 contiki-cc2538dk.a(uart.o)
 .ARM.attributes
                0x0000064f       0x31 contiki-cc2538dk.a(watchdog.o)
 .ARM.attributes
                0x00000680       0x31 contiki-cc2538dk.a(nvic.o)
 .ARM.attributes
                0x000006b1       0x31 contiki-cc2538dk.a(cpu.o)
 .ARM.attributes
                0x000006e2       0x31 contiki-cc2538dk.a(sys-ctrl.o)
 .ARM.attributes
                0x00000713       0x31 contiki-cc2538dk.a(gpio.o)
 .ARM.attributes
                0x00000744       0x31 contiki-cc2538dk.a(ioc.o)
 .ARM.attributes
                0x00000775       0x31 contiki-cc2538dk.a(spi.o)
 .ARM.attributes
                0x000007a6       0x31 contiki-cc2538dk.a(adc.o)
 .ARM.attributes
                0x000007d7       0x31 contiki-cc2538dk.a(cc2538-rf.o)
 .ARM.attributes
                0x00000808       0x31 contiki-cc2538dk.a(udma.o)
 .ARM.attributes
                0x00000839       0x31 contiki-cc2538dk.a(lpm.o)
 .ARM.attributes
                0x0000086a       0x31 contiki-cc2538dk.a(dbg.o)
 .ARM.attributes
                0x0000089b       0x31 contiki-cc2538dk.a(ieee-addr.o)
 .ARM.attributes
                0x000008cc       0x31 contiki-cc2538dk.a(dbg-printf.o)
 .ARM.attributes
                0x000008fd       0x31 contiki-cc2538dk.a(dbg-snprintf.o)
 .ARM.attributes
                0x0000092e       0x31 contiki-cc2538dk.a(dbg-sprintf.o)
 .ARM.attributes
                0x0000095f       0x31 contiki-cc2538dk.a(strformat.o)
 .ARM.attributes
                0x00000990       0x31 contiki-cc2538dk.a(autostart.o)
 .ARM.attributes
                0x000009c1       0x31 contiki-cc2538dk.a(ctimer.o)
 .ARM.attributes
                0x000009f2       0x31 contiki-cc2538dk.a(energest.o)
 .ARM.attributes
                0x00000a23       0x31 contiki-cc2538dk.a(etimer.o)
 .ARM.attributes
                0x00000a54       0x31 contiki-cc2538dk.a(process.o)
 .ARM.attributes
                0x00000a85       0x31 contiki-cc2538dk.a(rtimer.o)
 .ARM.attributes
                0x00000ab6       0x31 contiki-cc2538dk.a(stimer.o)
 .ARM.attributes
                0x00000ae7       0x31 contiki-cc2538dk.a(timer.o)
 .ARM.attributes
                0x00000b18       0x31 contiki-cc2538dk.a(serial-line.o)
 .ARM.attributes
                0x00000b49       0x31 contiki-cc2538dk.a(list.o)
 .ARM.attributes
                0x00000b7a       0x31 contiki-cc2538dk.a(memb.o)
 .ARM.attributes
                0x00000bab       0x31 contiki-cc2538dk.a(random.o)
 .ARM.attributes
                0x00000bdc       0x31 contiki-cc2538dk.a(ringbuf.o)
 .ARM.attributes
                0x00000c0d       0x31 contiki-cc2538dk.a(linkaddr.o)
 .ARM.attributes
                0x00000c3e       0x31 contiki-cc2538dk.a(nbr-table.o)
 .ARM.attributes
                0x00000c6f       0x31 contiki-cc2538dk.a(netstack.o)
 .ARM.attributes
                0x00000ca0       0x31 contiki-cc2538dk.a(packetbuf.o)
 .ARM.attributes
                0x00000cd1       0x31 contiki-cc2538dk.a(queuebuf.o)
 .ARM.attributes
                0x00000d02       0x31 contiki-cc2538dk.a(sicslowpan.o)
 .ARM.attributes
                0x00000d33       0x31 contiki-cc2538dk.a(uip6.o)
 .ARM.attributes
                0x00000d64       0x31 contiki-cc2538dk.a(uip-ds6.o)
 .ARM.attributes
                0x00000d95       0x31 contiki-cc2538dk.a(uip-ds6-nbr.o)
 .ARM.attributes
                0x00000dc6       0x31 contiki-cc2538dk.a(uip-ds6-route.o)
 .ARM.attributes
                0x00000df7       0x31 contiki-cc2538dk.a(uip-icmp6.o)
 .ARM.attributes
                0x00000e28       0x31 contiki-cc2538dk.a(uip-nd6.o)
 .ARM.attributes
                0x00000e59       0x31 contiki-cc2538dk.a(csma.o)
 .ARM.attributes
                0x00000e8a       0x31 contiki-cc2538dk.a(framer-802154.o)
 .ARM.attributes
                0x00000ebb       0x31 contiki-cc2538dk.a(mac.o)
 .ARM.attributes
                0x00000eec       0x31 contiki-cc2538dk.a(psock.o)
 .ARM.attributes
                0x00000f1d       0x31 contiki-cc2538dk.a(tcpip.o)
 .ARM.attributes
                0x00000f4e       0x31 contiki-cc2538dk.a(uip-debug.o)
 .ARM.attributes
                0x00000f7f       0x31 contiki-cc2538dk.a(uiplib.o)
 .ARM.attributes
                0x00000fb0       0x31 contiki-cc2538dk.a(uip-udp-packet.)
 .ARM.attributes
                0x00000fe1       0x31 contiki-cc2538dk.a(rpl.o)
 .ARM.attributes
                0x00001012       0x31 contiki-cc2538dk.a(rpl-dag.o)
 .ARM.attributes
                0x00001043       0x31 contiki-cc2538dk.a(rpl-ext-header.)
 .ARM.attributes
                0x00001074       0x31 contiki-cc2538dk.a(rpl-icmp6.o)
 .ARM.attributes
                0x000010a5       0x31 contiki-cc2538dk.a(rpl-mrhof.o)
 .ARM.attributes
                0x000010d6       0x31 contiki-cc2538dk.a(rpl-timers.o)
 .ARM.attributes
                0x00001107       0x31 contiki-cc2538dk.a(contikimac.o)
 .ARM.attributes
                0x00001138       0x31 contiki-cc2538dk.a(leds.o)
 .ARM.attributes
                0x00001169       0x31 contiki-cc2538dk.a(leds-arch.o)
 .ARM.attributes
                0x0000119a       0x31 contiki-cc2538dk.a(frame802154.o)
 .ARM.attributes
                0x000011cb       0x31 contiki-cc2538dk.a(mac-sequence.o)
 .ARM.attributes
                0x000011fc       0x17 /home/user/CodeSourcery/Sourcery_G++_Lite/bin/../lib/gcc/arm-none-eabi/4.3.2/thumb2/libgcc.a(_aeabi_uldivmod.o)
 .ARM.attributes
                0x00001213       0x27 /home/user/CodeSourcery/Sourcery_G++_Lite/bin/../lib/gcc/arm-none-eabi/4.3.2/thumb2/libgcc.a(bpabi.o)
 .ARM.attributes
                0x0000123a       0x17 /home/user/CodeSourcery/Sourcery_G++_Lite/bin/../lib/gcc/arm-none-eabi/4.3.2/thumb2/libgcc.a(_dvmd_tls.o)
 .ARM.attributes
                0x00001251       0x27 /home/user/CodeSourcery/Sourcery_G++_Lite/bin/../lib/gcc/arm-none-eabi/4.3.2/thumb2/libgcc.a(_divdi3.o)
 .ARM.attributes
                0x00001278       0x27 /home/user/CodeSourcery/Sourcery_G++_Lite/bin/../lib/gcc/arm-none-eabi/4.3.2/thumb2/libgcc.a(_udivdi3.o)
 .ARM.attributes
                0x0000129f       0x17 /home/user/CodeSourcery/Sourcery_G++_Lite/bin/../lib/gcc/arm-none-eabi/4.3.2/thumb2/libgcc.a(_udivsi3.o)
 .ARM.attributes
                0x000012b6       0x25 /home/user/CodeSourcery/Sourcery_G++_Lite/bin/../lib/gcc/arm-none-eabi/4.3.2/thumb2/libgcc.a(_clz.o)
 .ARM.attributes
                0x000012db       0x27 /home/user/CodeSourcery/Sourcery_G++_Lite/bin/../lib/gcc/arm-none-eabi/4.3.2/../../../../arm-none-eabi/lib/thumb2/libc.a(lib_a-atoi.o)
 .ARM.attributes
                0x00001302       0x27 /home/user/CodeSourcery/Sourcery_G++_Lite/bin/../lib/gcc/arm-none-eabi/4.3.2/../../../../arm-none-eabi/lib/thumb2/libc.a(lib_a-index.o)
 .ARM.attributes
                0x00001329       0x27 /home/user/CodeSourcery/Sourcery_G++_Lite/bin/../lib/gcc/arm-none-eabi/4.3.2/../../../../arm-none-eabi/lib/thumb2/libc.a(lib_a-lcltime_r.o)
 .ARM.attributes
                0x00001350       0x27 /home/user/CodeSourcery/Sourcery_G++_Lite/bin/../lib/gcc/arm-none-eabi/4.3.2/../../../../arm-none-eabi/lib/thumb2/libc.a(lib_a-memchr.o)
 .ARM.attributes
                0x00001377       0x27 /home/user/CodeSourcery/Sourcery_G++_Lite/bin/../lib/gcc/arm-none-eabi/4.3.2/../../../../arm-none-eabi/lib/thumb2/libc.a(lib_a-memcmp.o)
 .ARM.attributes
                0x0000139e       0x27 /home/user/CodeSourcery/Sourcery_G++_Lite/bin/../lib/gcc/arm-none-eabi/4.3.2/../../../../arm-none-eabi/lib/thumb2/libc.a(lib_a-memcpy.o)
 .ARM.attributes
                0x000013c5       0x27 /home/user/CodeSourcery/Sourcery_G++_Lite/bin/../lib/gcc/arm-none-eabi/4.3.2/../../../../arm-none-eabi/lib/thumb2/libc.a(lib_a-memmove.o)
 .ARM.attributes
                0x000013ec       0x27 /home/user/CodeSourcery/Sourcery_G++_Lite/bin/../lib/gcc/arm-none-eabi/4.3.2/../../../../arm-none-eabi/lib/thumb2/libc.a(lib_a-memset.o)
 .ARM.attributes
                0x00001413       0x27 /home/user/CodeSourcery/Sourcery_G++_Lite/bin/../lib/gcc/arm-none-eabi/4.3.2/../../../../arm-none-eabi/lib/thumb2/libc.a(lib_a-mktm_r.o)
 .ARM.attributes
                0x0000143a       0x27 /home/user/CodeSourcery/Sourcery_G++_Lite/bin/../lib/gcc/arm-none-eabi/4.3.2/../../../../arm-none-eabi/lib/thumb2/libc.a(lib_a-strchr.o)
 .ARM.attributes
                0x00001461       0x27 /home/user/CodeSourcery/Sourcery_G++_Lite/bin/../lib/gcc/arm-none-eabi/4.3.2/../../../../arm-none-eabi/lib/thumb2/libc.a(lib_a-strcmp.o)
 .ARM.attributes
                0x00001488       0x27 /home/user/CodeSourcery/Sourcery_G++_Lite/bin/../lib/gcc/arm-none-eabi/4.3.2/../../../../arm-none-eabi/lib/thumb2/libc.a(lib_a-strcpy.o)
 .ARM.attributes
                0x000014af       0x27 /home/user/CodeSourcery/Sourcery_G++_Lite/bin/../lib/gcc/arm-none-eabi/4.3.2/../../../../arm-none-eabi/lib/thumb2/libc.a(lib_a-strlen.o)
 .ARM.attributes
                0x000014d6       0x27 /home/user/CodeSourcery/Sourcery_G++_Lite/bin/../lib/gcc/arm-none-eabi/4.3.2/../../../../arm-none-eabi/lib/thumb2/libc.a(lib_a-strncmp.o)
 .ARM.attributes
                0x000014fd       0x27 /home/user/CodeSourcery/Sourcery_G++_Lite/bin/../lib/gcc/arm-none-eabi/4.3.2/../../../../arm-none-eabi/lib/thumb2/libc.a(lib_a-strncpy.o)
 .ARM.attributes
                0x00001524       0x27 /home/user/CodeSourcery/Sourcery_G++_Lite/bin/../lib/gcc/arm-none-eabi/4.3.2/../../../../arm-none-eabi/lib/thumb2/libc.a(lib_a-strstr.o)
 .ARM.attributes
                0x0000154b       0x27 /home/user/CodeSourcery/Sourcery_G++_Lite/bin/../lib/gcc/arm-none-eabi/4.3.2/../../../../arm-none-eabi/lib/thumb2/libc.a(lib_a-strtol.o)
 .ARM.attributes
                0x00001572       0x27 /home/user/CodeSourcery/Sourcery_G++_Lite/bin/../lib/gcc/arm-none-eabi/4.3.2/../../../../arm-none-eabi/lib/thumb2/libc.a(lib_a-sysgettod.o)
 .ARM.attributes
                0x00001599       0x27 /home/user/CodeSourcery/Sourcery_G++_Lite/bin/../lib/gcc/arm-none-eabi/4.3.2/../../../../arm-none-eabi/lib/thumb2/libc.a(lib_a-tzlock.o)
 .ARM.attributes
                0x000015c0       0x25 /home/user/CodeSourcery/Sourcery_G++_Lite/bin/../lib/gcc/arm-none-eabi/4.3.2/../../../../arm-none-eabi/lib/thumb2/libc.a(lib_a-tzvars.o)
 .ARM.attributes
                0x000015e5       0x25 /home/user/CodeSourcery/Sourcery_G++_Lite/bin/../lib/gcc/arm-none-eabi/4.3.2/../../../../arm-none-eabi/lib/thumb2/libc.a(lib_a-ctype_.o)
 .ARM.attributes
                0x0000160a       0x27 /home/user/CodeSourcery/Sourcery_G++_Lite/bin/../lib/gcc/arm-none-eabi/4.3.2/../../../../arm-none-eabi/lib/thumb2/libc.a(lib_a-gettimeofdayr.o)
 .ARM.attributes
                0x00001631       0x27 /home/user/CodeSourcery/Sourcery_G++_Lite/bin/../lib/gcc/arm-none-eabi/4.3.2/../../../../arm-none-eabi/lib/thumb2/libc.a(lib_a-gettzinfo.o)
 .ARM.attributes
                0x00001658       0x25 /home/user/CodeSourcery/Sourcery_G++_Lite/bin/../lib/gcc/arm-none-eabi/4.3.2/../../../../arm-none-eabi/lib/thumb2/libc.a(lib_a-impure.o)
 .ARM.attributes
                0x0000167d       0x27 /home/user/CodeSourcery/Sourcery_G++_Lite/bin/../lib/gcc/arm-none-eabi/4.3.2/../../../../arm-none-eabi/lib/thumb2/libc.a(lib_a-reent.o)
 .ARM.attributes
                0x000016a4       0x27 /home/user/CodeSourcery/Sourcery_G++_Lite/bin/../lib/gcc/arm-none-eabi/4.3.2/../../../../arm-none-eabi/lib/thumb2/libc.a(lib_a-freer.o)
 .ARM.attributes
                0x000016cb       0x27 /home/user/CodeSourcery/Sourcery_G++_Lite/bin/../lib/gcc/arm-none-eabi/4.3.2/../../../../arm-none-eabi/lib/thumb2/libc.a(lib_a-mallocr.o)
 .ARM.attributes
                0x000016f2       0x27 /home/user/CodeSourcery/Sourcery_G++_Lite/bin/../lib/gcc/arm-none-eabi/4.3.2/../../../../arm-none-eabi/lib/thumb2/libc.a(lib_a-mlock.o)
 .ARM.attributes
                0x00001719       0x27 /home/user/CodeSourcery/Sourcery_G++_Lite/bin/../lib/gcc/arm-none-eabi/4.3.2/../../../../arm-none-eabi/lib/thumb2/libc.a(lib_a-sbrkr.o)

.debug_frame    0x00000000      0x650
 .debug_frame   0x00000000       0x50 /home/user/CodeSourcery/Sourcery_G++_Lite/bin/../lib/gcc/arm-none-eabi/4.3.2/thumb2/libgcc.a(bpabi.o)
 .debug_frame   0x00000050       0x38 /home/user/CodeSourcery/Sourcery_G++_Lite/bin/../lib/gcc/arm-none-eabi/4.3.2/thumb2/libgcc.a(_divdi3.o)
 .debug_frame   0x00000088       0x38 /home/user/CodeSourcery/Sourcery_G++_Lite/bin/../lib/gcc/arm-none-eabi/4.3.2/thumb2/libgcc.a(_udivdi3.o)
 .debug_frame   0x000000c0       0x20 /home/user/CodeSourcery/Sourcery_G++_Lite/bin/../lib/gcc/arm-none-eabi/4.3.2/thumb2/libgcc.a(_udivsi3.o)
 .debug_frame   0x000000e0       0x40 /home/user/CodeSourcery/Sourcery_G++_Lite/bin/../lib/gcc/arm-none-eabi/4.3.2/../../../../arm-none-eabi/lib/thumb2/libc.a(lib_a-atoi.o)
 .debug_frame   0x00000120       0x28 /home/user/CodeSourcery/Sourcery_G++_Lite/bin/../lib/gcc/arm-none-eabi/4.3.2/../../../../arm-none-eabi/lib/thumb2/libc.a(lib_a-index.o)
 .debug_frame   0x00000148       0x28 /home/user/CodeSourcery/Sourcery_G++_Lite/bin/../lib/gcc/arm-none-eabi/4.3.2/../../../../arm-none-eabi/lib/thumb2/libc.a(lib_a-lcltime_r.o)
 .debug_frame   0x00000170       0x28 /home/user/CodeSourcery/Sourcery_G++_Lite/bin/../lib/gcc/arm-none-eabi/4.3.2/../../../../arm-none-eabi/lib/thumb2/libc.a(lib_a-memchr.o)
 .debug_frame   0x00000198       0x2c /home/user/CodeSourcery/Sourcery_G++_Lite/bin/../lib/gcc/arm-none-eabi/4.3.2/../../../../arm-none-eabi/lib/thumb2/libc.a(lib_a-memcmp.o)
 .debug_frame   0x000001c4       0x2c /home/user/CodeSourcery/Sourcery_G++_Lite/bin/../lib/gcc/arm-none-eabi/4.3.2/../../../../arm-none-eabi/lib/thumb2/libc.a(lib_a-memcpy.o)
 .debug_frame   0x000001f0       0x2c /home/user/CodeSourcery/Sourcery_G++_Lite/bin/../lib/gcc/arm-none-eabi/4.3.2/../../../../arm-none-eabi/lib/thumb2/libc.a(lib_a-memmove.o)
 .debug_frame   0x0000021c       0x28 /home/user/CodeSourcery/Sourcery_G++_Lite/bin/../lib/gcc/arm-none-eabi/4.3.2/../../../../arm-none-eabi/lib/thumb2/libc.a(lib_a-memset.o)
 .debug_frame   0x00000244       0x5c /home/user/CodeSourcery/Sourcery_G++_Lite/bin/../lib/gcc/arm-none-eabi/4.3.2/../../../../arm-none-eabi/lib/thumb2/libc.a(lib_a-mktm_r.o)
 .debug_frame   0x000002a0       0x28 /home/user/CodeSourcery/Sourcery_G++_Lite/bin/../lib/gcc/arm-none-eabi/4.3.2/../../../../arm-none-eabi/lib/thumb2/libc.a(lib_a-strchr.o)
 .debug_frame   0x000002c8       0x20 /home/user/CodeSourcery/Sourcery_G++_Lite/bin/../lib/gcc/arm-none-eabi/4.3.2/../../../../arm-none-eabi/lib/thumb2/libc.a(lib_a-strcmp.o)
 .debug_frame   0x000002e8       0x28 /home/user/CodeSourcery/Sourcery_G++_Lite/bin/../lib/gcc/arm-none-eabi/4.3.2/../../../../arm-none-eabi/lib/thumb2/libc.a(lib_a-strcpy.o)
 .debug_frame   0x00000310       0x20 /home/user/CodeSourcery/Sourcery_G++_Lite/bin/../lib/gcc/arm-none-eabi/4.3.2/../../../../arm-none-eabi/lib/thumb2/libc.a(lib_a-strlen.o)
 .debug_frame   0x00000330       0x2c /home/user/CodeSourcery/Sourcery_G++_Lite/bin/../lib/gcc/arm-none-eabi/4.3.2/../../../../arm-none-eabi/lib/thumb2/libc.a(lib_a-strncmp.o)
 .debug_frame   0x0000035c       0x28 /home/user/CodeSourcery/Sourcery_G++_Lite/bin/../lib/gcc/arm-none-eabi/4.3.2/../../../../arm-none-eabi/lib/thumb2/libc.a(lib_a-strncpy.o)
 .debug_frame   0x00000384       0x8c /home/user/CodeSourcery/Sourcery_G++_Lite/bin/../lib/gcc/arm-none-eabi/4.3.2/../../../../arm-none-eabi/lib/thumb2/libc.a(lib_a-strstr.o)
 .debug_frame   0x00000410       0x54 /home/user/CodeSourcery/Sourcery_G++_Lite/bin/../lib/gcc/arm-none-eabi/4.3.2/../../../../arm-none-eabi/lib/thumb2/libc.a(lib_a-strtol.o)
 .debug_frame   0x00000464       0x28 /home/user/CodeSourcery/Sourcery_G++_Lite/bin/../lib/gcc/arm-none-eabi/4.3.2/../../../../arm-none-eabi/lib/thumb2/libc.a(lib_a-sysgettod.o)
 .debug_frame   0x0000048c       0x30 /home/user/CodeSourcery/Sourcery_G++_Lite/bin/../lib/gcc/arm-none-eabi/4.3.2/../../../../arm-none-eabi/lib/thumb2/libc.a(lib_a-tzlock.o)
 .debug_frame   0x000004bc       0x2c /home/user/CodeSourcery/Sourcery_G++_Lite/bin/../lib/gcc/arm-none-eabi/4.3.2/../../../../arm-none-eabi/lib/thumb2/libc.a(lib_a-gettimeofdayr.o)
 .debug_frame   0x000004e8       0x20 /home/user/CodeSourcery/Sourcery_G++_Lite/bin/../lib/gcc/arm-none-eabi/4.3.2/../../../../arm-none-eabi/lib/thumb2/libc.a(lib_a-gettzinfo.o)
 .debug_frame   0x00000508       0x64 /home/user/CodeSourcery/Sourcery_G++_Lite/bin/../lib/gcc/arm-none-eabi/4.3.2/../../../../arm-none-eabi/lib/thumb2/libc.a(lib_a-reent.o)
 .debug_frame   0x0000056c       0x50 /home/user/CodeSourcery/Sourcery_G++_Lite/bin/../lib/gcc/arm-none-eabi/4.3.2/../../../../arm-none-eabi/lib/thumb2/libc.a(lib_a-freer.o)
 .debug_frame   0x000005bc       0x38 /home/user/CodeSourcery/Sourcery_G++_Lite/bin/../lib/gcc/arm-none-eabi/4.3.2/../../../../arm-none-eabi/lib/thumb2/libc.a(lib_a-mallocr.o)
 .debug_frame   0x000005f4       0x30 /home/user/CodeSourcery/Sourcery_G++_Lite/bin/../lib/gcc/arm-none-eabi/4.3.2/../../../../arm-none-eabi/lib/thumb2/libc.a(lib_a-mlock.o)
 .debug_frame   0x00000624       0x2c /home/user/CodeSourcery/Sourcery_G++_Lite/bin/../lib/gcc/arm-none-eabi/4.3.2/../../../../arm-none-eabi/lib/thumb2/libc.a(lib_a-sbrkr.o)

Cross Reference Table

Symbol                                            File
__aeabi_idiv0                                     /home/user/CodeSourcery/Sourcery_G++_Lite/bin/../lib/gcc/arm-none-eabi/4.3.2/thumb2/libgcc.a(_dvmd_tls.o)
                                                  /home/user/CodeSourcery/Sourcery_G++_Lite/bin/../lib/gcc/arm-none-eabi/4.3.2/thumb2/libgcc.a(_udivsi3.o)
__aeabi_ldiv0                                     /home/user/CodeSourcery/Sourcery_G++_Lite/bin/../lib/gcc/arm-none-eabi/4.3.2/thumb2/libgcc.a(_dvmd_tls.o)
                                                  /home/user/CodeSourcery/Sourcery_G++_Lite/bin/../lib/gcc/arm-none-eabi/4.3.2/thumb2/libgcc.a(_aeabi_uldivmod.o)
__aeabi_uidiv                                     /home/user/CodeSourcery/Sourcery_G++_Lite/bin/../lib/gcc/arm-none-eabi/4.3.2/thumb2/libgcc.a(_udivsi3.o)
                                                  /home/user/CodeSourcery/Sourcery_G++_Lite/bin/../lib/gcc/arm-none-eabi/4.3.2/../../../../arm-none-eabi/lib/thumb2/libc.a(lib_a-strtol.o)
                                                  /home/user/CodeSourcery/Sourcery_G++_Lite/bin/../lib/gcc/arm-none-eabi/4.3.2/thumb2/libgcc.a(_udivdi3.o)
                                                  /home/user/CodeSourcery/Sourcery_G++_Lite/bin/../lib/gcc/arm-none-eabi/4.3.2/thumb2/libgcc.a(_divdi3.o)
__aeabi_uidivmod                                  /home/user/CodeSourcery/Sourcery_G++_Lite/bin/../lib/gcc/arm-none-eabi/4.3.2/thumb2/libgcc.a(_udivsi3.o)
                                                  /home/user/CodeSourcery/Sourcery_G++_Lite/bin/../lib/gcc/arm-none-eabi/4.3.2/../../../../arm-none-eabi/lib/thumb2/libc.a(lib_a-strtol.o)
                                                  /home/user/CodeSourcery/Sourcery_G++_Lite/bin/../lib/gcc/arm-none-eabi/4.3.2/thumb2/libgcc.a(_udivdi3.o)
                                                  /home/user/CodeSourcery/Sourcery_G++_Lite/bin/../lib/gcc/arm-none-eabi/4.3.2/thumb2/libgcc.a(_divdi3.o)
__aeabi_uldivmod                                  /home/user/CodeSourcery/Sourcery_G++_Lite/bin/../lib/gcc/arm-none-eabi/4.3.2/thumb2/libgcc.a(_aeabi_uldivmod.o)
                                                  contiki-cc2538dk.a(strformat.o)
__cca                                             obj_cc2538dk/startup-gcc.o
__clz_tab                                         /home/user/CodeSourcery/Sourcery_G++_Lite/bin/../lib/gcc/arm-none-eabi/4.3.2/thumb2/libgcc.a(_clz.o)
                                                  /home/user/CodeSourcery/Sourcery_G++_Lite/bin/../lib/gcc/arm-none-eabi/4.3.2/thumb2/libgcc.a(_udivdi3.o)
                                                  /home/user/CodeSourcery/Sourcery_G++_Lite/bin/../lib/gcc/arm-none-eabi/4.3.2/thumb2/libgcc.a(_divdi3.o)
__ctype_ptr                                       /home/user/CodeSourcery/Sourcery_G++_Lite/bin/../lib/gcc/arm-none-eabi/4.3.2/../../../../arm-none-eabi/lib/thumb2/libc.a(lib_a-ctype_.o)
__ctype_ptr__                                     /home/user/CodeSourcery/Sourcery_G++_Lite/bin/../lib/gcc/arm-none-eabi/4.3.2/../../../../arm-none-eabi/lib/thumb2/libc.a(lib_a-ctype_.o)
                                                  /home/user/CodeSourcery/Sourcery_G++_Lite/bin/../lib/gcc/arm-none-eabi/4.3.2/../../../../arm-none-eabi/lib/thumb2/libc.a(lib_a-strtol.o)
__divdi3                                          /home/user/CodeSourcery/Sourcery_G++_Lite/bin/../lib/gcc/arm-none-eabi/4.3.2/thumb2/libgcc.a(_divdi3.o)
                                                  /home/user/CodeSourcery/Sourcery_G++_Lite/bin/../lib/gcc/arm-none-eabi/4.3.2/thumb2/libgcc.a(bpabi.o)
__gettzinfo                                       /home/user/CodeSourcery/Sourcery_G++_Lite/bin/../lib/gcc/arm-none-eabi/4.3.2/../../../../arm-none-eabi/lib/thumb2/libc.a(lib_a-gettzinfo.o)
                                                  /home/user/CodeSourcery/Sourcery_G++_Lite/bin/../lib/gcc/arm-none-eabi/4.3.2/../../../../arm-none-eabi/lib/thumb2/libc.a(lib_a-mktm_r.o)
__gnu_ldivmod_helper                              /home/user/CodeSourcery/Sourcery_G++_Lite/bin/../lib/gcc/arm-none-eabi/4.3.2/thumb2/libgcc.a(bpabi.o)
__gnu_uldivmod_helper                             /home/user/CodeSourcery/Sourcery_G++_Lite/bin/../lib/gcc/arm-none-eabi/4.3.2/thumb2/libgcc.a(bpabi.o)
                                                  /home/user/CodeSourcery/Sourcery_G++_Lite/bin/../lib/gcc/arm-none-eabi/4.3.2/thumb2/libgcc.a(_aeabi_uldivmod.o)
__malloc_av_                                      /home/user/CodeSourcery/Sourcery_G++_Lite/bin/../lib/gcc/arm-none-eabi/4.3.2/../../../../arm-none-eabi/lib/thumb2/libc.a(lib_a-mallocr.o)
                                                  /home/user/CodeSourcery/Sourcery_G++_Lite/bin/../lib/gcc/arm-none-eabi/4.3.2/../../../../arm-none-eabi/lib/thumb2/libc.a(lib_a-freer.o)
__malloc_current_mallinfo                         /home/user/CodeSourcery/Sourcery_G++_Lite/bin/../lib/gcc/arm-none-eabi/4.3.2/../../../../arm-none-eabi/lib/thumb2/libc.a(lib_a-mallocr.o)
                                                  /home/user/CodeSourcery/Sourcery_G++_Lite/bin/../lib/gcc/arm-none-eabi/4.3.2/../../../../arm-none-eabi/lib/thumb2/libc.a(lib_a-freer.o)
__malloc_lock                                     /home/user/CodeSourcery/Sourcery_G++_Lite/bin/../lib/gcc/arm-none-eabi/4.3.2/../../../../arm-none-eabi/lib/thumb2/libc.a(lib_a-mlock.o)
                                                  /home/user/CodeSourcery/Sourcery_G++_Lite/bin/../lib/gcc/arm-none-eabi/4.3.2/../../../../arm-none-eabi/lib/thumb2/libc.a(lib_a-mallocr.o)
                                                  /home/user/CodeSourcery/Sourcery_G++_Lite/bin/../lib/gcc/arm-none-eabi/4.3.2/../../../../arm-none-eabi/lib/thumb2/libc.a(lib_a-freer.o)
__malloc_max_sbrked_mem                           /home/user/CodeSourcery/Sourcery_G++_Lite/bin/../lib/gcc/arm-none-eabi/4.3.2/../../../../arm-none-eabi/lib/thumb2/libc.a(lib_a-mallocr.o)
__malloc_max_total_mem                            /home/user/CodeSourcery/Sourcery_G++_Lite/bin/../lib/gcc/arm-none-eabi/4.3.2/../../../../arm-none-eabi/lib/thumb2/libc.a(lib_a-mallocr.o)
__malloc_sbrk_base                                /home/user/CodeSourcery/Sourcery_G++_Lite/bin/../lib/gcc/arm-none-eabi/4.3.2/../../../../arm-none-eabi/lib/thumb2/libc.a(lib_a-mallocr.o)
                                                  /home/user/CodeSourcery/Sourcery_G++_Lite/bin/../lib/gcc/arm-none-eabi/4.3.2/../../../../arm-none-eabi/lib/thumb2/libc.a(lib_a-freer.o)
__malloc_top_pad                                  /home/user/CodeSourcery/Sourcery_G++_Lite/bin/../lib/gcc/arm-none-eabi/4.3.2/../../../../arm-none-eabi/lib/thumb2/libc.a(lib_a-mallocr.o)
                                                  /home/user/CodeSourcery/Sourcery_G++_Lite/bin/../lib/gcc/arm-none-eabi/4.3.2/../../../../arm-none-eabi/lib/thumb2/libc.a(lib_a-freer.o)
__malloc_trim_threshold                           /home/user/CodeSourcery/Sourcery_G++_Lite/bin/../lib/gcc/arm-none-eabi/4.3.2/../../../../arm-none-eabi/lib/thumb2/libc.a(lib_a-mallocr.o)
                                                  /home/user/CodeSourcery/Sourcery_G++_Lite/bin/../lib/gcc/arm-none-eabi/4.3.2/../../../../arm-none-eabi/lib/thumb2/libc.a(lib_a-freer.o)
__malloc_unlock                                   /home/user/CodeSourcery/Sourcery_G++_Lite/bin/../lib/gcc/arm-none-eabi/4.3.2/../../../../arm-none-eabi/lib/thumb2/libc.a(lib_a-mlock.o)
                                                  /home/user/CodeSourcery/Sourcery_G++_Lite/bin/../lib/gcc/arm-none-eabi/4.3.2/../../../../arm-none-eabi/lib/thumb2/libc.a(lib_a-mallocr.o)
                                                  /home/user/CodeSourcery/Sourcery_G++_Lite/bin/../lib/gcc/arm-none-eabi/4.3.2/../../../../arm-none-eabi/lib/thumb2/libc.a(lib_a-freer.o)
__sf_fake_stderr                                  /home/user/CodeSourcery/Sourcery_G++_Lite/bin/../lib/gcc/arm-none-eabi/4.3.2/../../../../arm-none-eabi/lib/thumb2/libc.a(lib_a-impure.o)
__sf_fake_stdin                                   /home/user/CodeSourcery/Sourcery_G++_Lite/bin/../lib/gcc/arm-none-eabi/4.3.2/../../../../arm-none-eabi/lib/thumb2/libc.a(lib_a-impure.o)
__sf_fake_stdout                                  /home/user/CodeSourcery/Sourcery_G++_Lite/bin/../lib/gcc/arm-none-eabi/4.3.2/../../../../arm-none-eabi/lib/thumb2/libc.a(lib_a-impure.o)
__tz_lock                                         /home/user/CodeSourcery/Sourcery_G++_Lite/bin/../lib/gcc/arm-none-eabi/4.3.2/../../../../arm-none-eabi/lib/thumb2/libc.a(lib_a-tzlock.o)
                                                  /home/user/CodeSourcery/Sourcery_G++_Lite/bin/../lib/gcc/arm-none-eabi/4.3.2/../../../../arm-none-eabi/lib/thumb2/libc.a(lib_a-mktm_r.o)
__tz_unlock                                       /home/user/CodeSourcery/Sourcery_G++_Lite/bin/../lib/gcc/arm-none-eabi/4.3.2/../../../../arm-none-eabi/lib/thumb2/libc.a(lib_a-tzlock.o)
                                                  /home/user/CodeSourcery/Sourcery_G++_Lite/bin/../lib/gcc/arm-none-eabi/4.3.2/../../../../arm-none-eabi/lib/thumb2/libc.a(lib_a-mktm_r.o)
__tzcalc_limits                                   /home/user/CodeSourcery/Sourcery_G++_Lite/bin/../lib/gcc/arm-none-eabi/4.3.2/../../../../arm-none-eabi/lib/thumb2/libc.a(lib_a-mktm_r.o)
__udivdi3                                         /home/user/CodeSourcery/Sourcery_G++_Lite/bin/../lib/gcc/arm-none-eabi/4.3.2/thumb2/libgcc.a(_udivdi3.o)
                                                  /home/user/CodeSourcery/Sourcery_G++_Lite/bin/../lib/gcc/arm-none-eabi/4.3.2/thumb2/libgcc.a(bpabi.o)
__udivsi3                                         /home/user/CodeSourcery/Sourcery_G++_Lite/bin/../lib/gcc/arm-none-eabi/4.3.2/thumb2/libgcc.a(_udivsi3.o)
_atoi_r                                           /home/user/CodeSourcery/Sourcery_G++_Lite/bin/../lib/gcc/arm-none-eabi/4.3.2/../../../../arm-none-eabi/lib/thumb2/libc.a(lib_a-atoi.o)
_bss                                              obj_cc2538dk/startup-gcc.o
_ctype_                                           /home/user/CodeSourcery/Sourcery_G++_Lite/bin/../lib/gcc/arm-none-eabi/4.3.2/../../../../arm-none-eabi/lib/thumb2/libc.a(lib_a-ctype_.o)
_data                                             obj_cc2538dk/startup-gcc.o
_daylight                                         /home/user/CodeSourcery/Sourcery_G++_Lite/bin/../lib/gcc/arm-none-eabi/4.3.2/../../../../arm-none-eabi/lib/thumb2/libc.a(lib_a-tzvars.o)
                                                  /home/user/CodeSourcery/Sourcery_G++_Lite/bin/../lib/gcc/arm-none-eabi/4.3.2/../../../../arm-none-eabi/lib/thumb2/libc.a(lib_a-mktm_r.o)
_ebss                                             obj_cc2538dk/startup-gcc.o
_edata                                            obj_cc2538dk/startup-gcc.o
_etext                                            obj_cc2538dk/startup-gcc.o
_free_r                                           /home/user/CodeSourcery/Sourcery_G++_Lite/bin/../lib/gcc/arm-none-eabi/4.3.2/../../../../arm-none-eabi/lib/thumb2/libc.a(lib_a-freer.o)
                                                  /home/user/CodeSourcery/Sourcery_G++_Lite/bin/../lib/gcc/arm-none-eabi/4.3.2/../../../../arm-none-eabi/lib/thumb2/libc.a(lib_a-mallocr.o)
                                                  /home/user/CodeSourcery/Sourcery_G++_Lite/bin/../lib/gcc/arm-none-eabi/4.3.2/../../../../arm-none-eabi/lib/thumb2/libc.a(lib_a-reent.o)
_gettimeofday                                     /home/user/CodeSourcery/Sourcery_G++_Lite/bin/../lib/gcc/arm-none-eabi/4.3.2/../../../../arm-none-eabi/lib/thumb2/libc.a(lib_a-gettimeofdayr.o)
_gettimeofday_r                                   /home/user/CodeSourcery/Sourcery_G++_Lite/bin/../lib/gcc/arm-none-eabi/4.3.2/../../../../arm-none-eabi/lib/thumb2/libc.a(lib_a-gettimeofdayr.o)
                                                  /home/user/CodeSourcery/Sourcery_G++_Lite/bin/../lib/gcc/arm-none-eabi/4.3.2/../../../../arm-none-eabi/lib/thumb2/libc.a(lib_a-sysgettod.o)
_global_impure_ptr                                /home/user/CodeSourcery/Sourcery_G++_Lite/bin/../lib/gcc/arm-none-eabi/4.3.2/../../../../arm-none-eabi/lib/thumb2/libc.a(lib_a-impure.o)
_impure_ptr                                       /home/user/CodeSourcery/Sourcery_G++_Lite/bin/../lib/gcc/arm-none-eabi/4.3.2/../../../../arm-none-eabi/lib/thumb2/libc.a(lib_a-impure.o)
                                                  /home/user/CodeSourcery/Sourcery_G++_Lite/bin/../lib/gcc/arm-none-eabi/4.3.2/../../../../arm-none-eabi/lib/thumb2/libc.a(lib_a-reent.o)
                                                  /home/user/CodeSourcery/Sourcery_G++_Lite/bin/../lib/gcc/arm-none-eabi/4.3.2/../../../../arm-none-eabi/lib/thumb2/libc.a(lib_a-sysgettod.o)
                                                  /home/user/CodeSourcery/Sourcery_G++_Lite/bin/../lib/gcc/arm-none-eabi/4.3.2/../../../../arm-none-eabi/lib/thumb2/libc.a(lib_a-strtol.o)
_malloc_r                                         /home/user/CodeSourcery/Sourcery_G++_Lite/bin/../lib/gcc/arm-none-eabi/4.3.2/../../../../arm-none-eabi/lib/thumb2/libc.a(lib_a-mallocr.o)
_malloc_trim_r                                    /home/user/CodeSourcery/Sourcery_G++_Lite/bin/../lib/gcc/arm-none-eabi/4.3.2/../../../../arm-none-eabi/lib/thumb2/libc.a(lib_a-freer.o)
_mktm_r                                           /home/user/CodeSourcery/Sourcery_G++_Lite/bin/../lib/gcc/arm-none-eabi/4.3.2/../../../../arm-none-eabi/lib/thumb2/libc.a(lib_a-mktm_r.o)
                                                  /home/user/CodeSourcery/Sourcery_G++_Lite/bin/../lib/gcc/arm-none-eabi/4.3.2/../../../../arm-none-eabi/lib/thumb2/libc.a(lib_a-lcltime_r.o)
_reclaim_reent                                    /home/user/CodeSourcery/Sourcery_G++_Lite/bin/../lib/gcc/arm-none-eabi/4.3.2/../../../../arm-none-eabi/lib/thumb2/libc.a(lib_a-reent.o)
_sbrk                                             /home/user/CodeSourcery/Sourcery_G++_Lite/bin/../lib/gcc/arm-none-eabi/4.3.2/../../../../arm-none-eabi/lib/thumb2/libc.a(lib_a-sbrkr.o)
_sbrk_r                                           /home/user/CodeSourcery/Sourcery_G++_Lite/bin/../lib/gcc/arm-none-eabi/4.3.2/../../../../arm-none-eabi/lib/thumb2/libc.a(lib_a-sbrkr.o)
                                                  /home/user/CodeSourcery/Sourcery_G++_Lite/bin/../lib/gcc/arm-none-eabi/4.3.2/../../../../arm-none-eabi/lib/thumb2/libc.a(lib_a-mallocr.o)
                                                  /home/user/CodeSourcery/Sourcery_G++_Lite/bin/../lib/gcc/arm-none-eabi/4.3.2/../../../../arm-none-eabi/lib/thumb2/libc.a(lib_a-freer.o)
_strtol_r                                         /home/user/CodeSourcery/Sourcery_G++_Lite/bin/../lib/gcc/arm-none-eabi/4.3.2/../../../../arm-none-eabi/lib/thumb2/libc.a(lib_a-strtol.o)
                                                  /home/user/CodeSourcery/Sourcery_G++_Lite/bin/../lib/gcc/arm-none-eabi/4.3.2/../../../../arm-none-eabi/lib/thumb2/libc.a(lib_a-atoi.o)
_text                                             obj_cc2538dk/startup-gcc.o
_timezone                                         /home/user/CodeSourcery/Sourcery_G++_Lite/bin/../lib/gcc/arm-none-eabi/4.3.2/../../../../arm-none-eabi/lib/thumb2/libc.a(lib_a-tzvars.o)
_tzname                                           /home/user/CodeSourcery/Sourcery_G++_Lite/bin/../lib/gcc/arm-none-eabi/4.3.2/../../../../arm-none-eabi/lib/thumb2/libc.a(lib_a-tzvars.o)
_wrapup_reent                                     /home/user/CodeSourcery/Sourcery_G++_Lite/bin/../lib/gcc/arm-none-eabi/4.3.2/../../../../arm-none-eabi/lib/thumb2/libc.a(lib_a-reent.o)
adc_get                                           contiki-cc2538dk.a(adc.o)
                                                  contiki-cc2538dk.a(adc-sensor.o)
adc_init                                          contiki-cc2538dk.a(adc.o)
                                                  contiki-cc2538dk.a(adc-sensor.o)
adc_sensor                                        contiki-cc2538dk.a(adc-sensor.o)
                                                  contiki-cc2538dk.a(smartrf-sensors)
add_ipaddr                                        obj_cc2538dk/udp-client.o
atoi                                              /home/user/CodeSourcery/Sourcery_G++_Lite/bin/../lib/gcc/arm-none-eabi/4.3.2/../../../../arm-none-eabi/lib/thumb2/libc.a(lib_a-atoi.o)
                                                  obj_cc2538dk/node-info.o
                                                  obj_cc2538dk/webserver.o
autostart_exit                                    contiki-cc2538dk.a(autostart.o)
autostart_processes                               cetic-6lbr.co
                                                  contiki-cc2538dk.a(contiki-main.o)
autostart_start                                   contiki-cc2538dk.a(autostart.o)
                                                  contiki-cc2538dk.a(contiki-main.o)
button_down_sensor                                contiki-cc2538dk.a(button-sensor.o)
                                                  contiki-cc2538dk.a(smartrf-sensors)
button_left_sensor                                contiki-cc2538dk.a(button-sensor.o)
                                                  contiki-cc2538dk.a(smartrf-sensors)
button_right_sensor                               contiki-cc2538dk.a(button-sensor.o)
                                                  contiki-cc2538dk.a(smartrf-sensors)
button_select_sensor                              contiki-cc2538dk.a(button-sensor.o)
                                                  contiki-cc2538dk.a(smartrf-sensors)
button_sensor_init                                contiki-cc2538dk.a(button-sensor.o)
                                                  contiki-cc2538dk.a(contiki-main.o)
button_up_sensor                                  contiki-cc2538dk.a(button-sensor.o)
                                                  contiki-cc2538dk.a(smartrf-sensors)
cc2538_rf_channel_get                             contiki-cc2538dk.a(cc2538-rf.o)
cc2538_rf_channel_set                             contiki-cc2538dk.a(cc2538-rf.o)
                                                  obj_cc2538dk/cc2538dk-init.o
cc2538_rf_driver                                  contiki-cc2538dk.a(cc2538-rf.o)
                                                  contiki-cc2538dk.a(contikimac.o)
                                                  contiki-cc2538dk.a(netstack.o)
cc2538_rf_err_isr                                 contiki-cc2538dk.a(cc2538-rf.o)
                                                  obj_cc2538dk/startup-gcc.o
cc2538_rf_power_set                               contiki-cc2538dk.a(cc2538-rf.o)
cc2538_rf_process                                 contiki-cc2538dk.a(cc2538-rf.o)
cc2538_rf_read_rssi                               contiki-cc2538dk.a(cc2538-rf.o)
cc2538_rf_rx_tx_isr                               contiki-cc2538dk.a(cc2538-rf.o)
                                                  obj_cc2538dk/startup-gcc.o
cc2538_rf_set_addr                                contiki-cc2538dk.a(cc2538-rf.o)
                                                  contiki-cc2538dk.a(contiki-main.o)
cc2538_rf_set_promiscous_mode                     contiki-cc2538dk.a(cc2538-rf.o)
cetic_6lbr_init                                   cetic-6lbr.co
cetic_6lbr_process                                cetic-6lbr.co
                                                  obj_cc2538dk/webserver.o
cetic_6lbr_restart_event                          obj_cc2538dk/webserver.o
                                                  cetic-6lbr.co
cetic_6lbr_restart_type                           obj_cc2538dk/webserver.o
                                                  cetic-6lbr.co
cetic_6lbr_set_prefix                             cetic-6lbr.co
cetic_6lbr_startup                                obj_cc2538dk/webserver.o
                                                  cetic-6lbr.co
cetic_dag                                         obj_cc2538dk/webserver.o
                                                  cetic-6lbr.co
check_nvm                                         obj_cc2538dk/nvm-config.o
                                                  obj_cc2538dk/webserver.o
cleanup_glue                                      /home/user/CodeSourcery/Sourcery_G++_Lite/bin/../lib/gcc/arm-none-eabi/4.3.2/../../../../arm-none-eabi/lib/thumb2/libc.a(lib_a-reent.o)
clock_adjust                                      contiki-cc2538dk.a(clock.o)
                                                  contiki-cc2538dk.a(lpm.o)
clock_delay                                       contiki-cc2538dk.a(clock.o)
                                                  contiki-cc2538dk.a(leds.o)
                                                  obj_cc2538dk/enc28j60.o
clock_delay_usec                                  contiki-cc2538dk.a(clock.o)
                                                  contiki-cc2538dk.a(cc2538-rf.o)
                                                  contiki-cc2538dk.a(adc-sensor.o)
clock_init                                        contiki-cc2538dk.a(clock.o)
                                                  contiki-cc2538dk.a(contiki-main.o)
clock_isr                                         contiki-cc2538dk.a(clock.o)
                                                  obj_cc2538dk/startup-gcc.o
clock_seconds                                     contiki-cc2538dk.a(clock.o)
                                                  contiki-cc2538dk.a(stimer.o)
                                                  obj_cc2538dk/webserver.o
                                                  cetic-6lbr.co
clock_set_seconds                                 contiki-cc2538dk.a(clock.o)
clock_time                                        contiki-cc2538dk.a(clock.o)
                                                  contiki-cc2538dk.a(timer.o)
                                                  contiki-cc2538dk.a(etimer.o)
                                                  obj_cc2538dk/node-info.o
                                                  obj_cc2538dk/webserver.o
clock_wait                                        contiki-cc2538dk.a(clock.o)
coap_add_observer                                 contiki-cc2538dk.a(er-coap-13-obse)
coap_blocking_request                             contiki-cc2538dk.a(er-coap-13-engi)
coap_blocking_request_block                       obj_cc2538dk/block-transfer.o
coap_blocking_request_callback                    contiki-cc2538dk.a(er-coap-13-engi)
                                                  obj_cc2538dk/block-transfer.o
coap_check_transactions                           contiki-cc2538dk.a(er-coap-13-tran)
                                                  contiki-cc2538dk.a(er-coap-13-engi)
coap_clear_transaction                            contiki-cc2538dk.a(er-coap-13-tran)
                                                  contiki-cc2538dk.a(er-coap-13-engi)
coap_default_context                              contiki-cc2538dk.a(er-coap-13-engi)
                                                  contiki-cc2538dk.a(er-coap-13-udp.)
coap_error_code                                   contiki-cc2538dk.a(er-coap-13.o)
                                                  contiki-cc2538dk.a(er-coap-13-engi)
coap_error_message                                contiki-cc2538dk.a(er-coap-13.o)
                                                  contiki-cc2538dk.a(er-coap-13-engi)
coap_get_header_accept                            contiki-cc2538dk.a(er-coap-13.o)
                                                  contiki-cc2538dk.a(er-coap-13-engi)
coap_get_header_block1                            contiki-cc2538dk.a(er-coap-13.o)
                                                  obj_cc2538dk/block-transfer.o
coap_get_header_block2                            contiki-cc2538dk.a(er-coap-13.o)
                                                  contiki-cc2538dk.a(er-coap-13-engi)
coap_get_header_content_type                      contiki-cc2538dk.a(er-coap-13.o)
                                                  contiki-cc2538dk.a(er-coap-13-engi)
coap_get_header_etag                              contiki-cc2538dk.a(er-coap-13.o)
coap_get_header_if_match                          contiki-cc2538dk.a(er-coap-13.o)
                                                  contiki-cc2538dk.a(er-coap-13-engi)
coap_get_header_if_none_match                     contiki-cc2538dk.a(er-coap-13.o)
                                                  contiki-cc2538dk.a(er-coap-13-engi)
coap_get_header_location_path                     contiki-cc2538dk.a(er-coap-13.o)
coap_get_header_location_query                    contiki-cc2538dk.a(er-coap-13.o)
coap_get_header_max_age                           contiki-cc2538dk.a(er-coap-13.o)
                                                  contiki-cc2538dk.a(er-coap-13-engi)
coap_get_header_observe                           contiki-cc2538dk.a(er-coap-13.o)
coap_get_header_proxy_uri                         contiki-cc2538dk.a(er-coap-13.o)
coap_get_header_size                              contiki-cc2538dk.a(er-coap-13.o)
                                                  contiki-cc2538dk.a(er-coap-13-engi)
coap_get_header_token                             contiki-cc2538dk.a(er-coap-13.o)
coap_get_header_uri_host                          contiki-cc2538dk.a(er-coap-13.o)
                                                  contiki-cc2538dk.a(er-coap-13-engi)
coap_get_header_uri_path                          contiki-cc2538dk.a(er-coap-13.o)
                                                  contiki-cc2538dk.a(er-coap-13-engi)
coap_get_header_uri_query                         contiki-cc2538dk.a(er-coap-13.o)
                                                  contiki-cc2538dk.a(er-coap-13-engi)
coap_get_mid                                      contiki-cc2538dk.a(er-coap-13.o)
                                                  contiki-cc2538dk.a(er-coap-13-obse)
                                                  contiki-cc2538dk.a(er-coap-13-engi)
                                                  obj_cc2538dk/block-transfer.o
coap_get_payload                                  contiki-cc2538dk.a(er-coap-13.o)
                                                  contiki-cc2538dk.a(er-coap-13-engi)
coap_get_post_variable                            contiki-cc2538dk.a(er-coap-13.o)
                                                  contiki-cc2538dk.a(er-coap-13-engi)
coap_get_query_variable                           contiki-cc2538dk.a(er-coap-13.o)
                                                  contiki-cc2538dk.a(er-coap-13-engi)
coap_get_rest_method                              contiki-cc2538dk.a(er-coap-13-engi)
coap_get_transaction_by_mid                       contiki-cc2538dk.a(er-coap-13-tran)
                                                  contiki-cc2538dk.a(er-coap-13-engi)
coap_handle_receive                               contiki-cc2538dk.a(er-coap-13-udp.)
                                                  contiki-cc2538dk.a(er-coap-13-engi)
coap_init_communication_layer                     contiki-cc2538dk.a(er-coap-13-udp.)
                                                  contiki-cc2538dk.a(er-coap-13.o)
coap_init_connection                              contiki-cc2538dk.a(er-coap-13.o)
                                                  contiki-cc2538dk.a(er-coap-13-engi)
coap_init_message                                 contiki-cc2538dk.a(er-coap-13.o)
                                                  contiki-cc2538dk.a(er-coap-13-engi)
coap_new_transaction                              contiki-cc2538dk.a(er-coap-13-tran)
                                                  contiki-cc2538dk.a(er-coap-13-obse)
                                                  contiki-cc2538dk.a(er-coap-13-engi)
                                                  obj_cc2538dk/block-transfer.o
coap_notify_observers                             contiki-cc2538dk.a(er-coap-13-obse)
                                                  contiki-cc2538dk.a(er-coap-13-engi)
coap_observe_handler                              contiki-cc2538dk.a(er-coap-13-obse)
                                                  contiki-cc2538dk.a(er-coap-13-engi)
coap_parse_message                                contiki-cc2538dk.a(er-coap-13.o)
                                                  contiki-cc2538dk.a(er-coap-13-engi)
coap_receive                                      contiki-cc2538dk.a(er-coap-13-engi)
                                                  contiki-cc2538dk.a(er-coap-13-udp.)
coap_receiver                                     contiki-cc2538dk.a(er-coap-13-engi)
coap_receiver_init                                contiki-cc2538dk.a(er-coap-13-engi)
coap_register_as_transaction_handler              contiki-cc2538dk.a(er-coap-13-tran)
                                                  contiki-cc2538dk.a(er-coap-13-engi)
coap_remove_observer                              contiki-cc2538dk.a(er-coap-13-obse)
coap_remove_observer_by_client                    contiki-cc2538dk.a(er-coap-13-obse)
                                                  contiki-cc2538dk.a(er-coap-13-tran)
coap_remove_observer_by_mid                       contiki-cc2538dk.a(er-coap-13-obse)
                                                  contiki-cc2538dk.a(er-coap-13-engi)
coap_remove_observer_by_token                     contiki-cc2538dk.a(er-coap-13-obse)
coap_remove_observer_by_url                       contiki-cc2538dk.a(er-coap-13-obse)
coap_rest_implementation                          contiki-cc2538dk.a(er-coap-13-engi)
                                                  contiki-cc2538dk.a(erbium.o)
coap_send_message                                 contiki-cc2538dk.a(er-coap-13-udp.)
                                                  contiki-cc2538dk.a(er-coap-13-tran)
                                                  contiki-cc2538dk.a(er-coap-13-engi)
coap_send_transaction                             contiki-cc2538dk.a(er-coap-13-tran)
                                                  contiki-cc2538dk.a(er-coap-13-obse)
                                                  contiki-cc2538dk.a(er-coap-13-engi)
                                                  obj_cc2538dk/block-transfer.o
coap_serialize_message                            contiki-cc2538dk.a(er-coap-13.o)
                                                  contiki-cc2538dk.a(er-coap-13-obse)
                                                  contiki-cc2538dk.a(er-coap-13-engi)
                                                  obj_cc2538dk/block-transfer.o
coap_server_process                               obj_cc2538dk/coap-server.o
                                                  cetic-6lbr.co
coap_set_header_accept                            contiki-cc2538dk.a(er-coap-13.o)
coap_set_header_block1                            contiki-cc2538dk.a(er-coap-13.o)
                                                  obj_cc2538dk/block-transfer.o
coap_set_header_block2                            contiki-cc2538dk.a(er-coap-13.o)
                                                  contiki-cc2538dk.a(er-coap-13-engi)
coap_set_header_content_type                      contiki-cc2538dk.a(er-coap-13.o)
                                                  contiki-cc2538dk.a(er-coap-13-engi)
coap_set_header_etag                              contiki-cc2538dk.a(er-coap-13.o)
                                                  contiki-cc2538dk.a(er-coap-13-engi)
coap_set_header_if_match                          contiki-cc2538dk.a(er-coap-13.o)
coap_set_header_if_none_match                     contiki-cc2538dk.a(er-coap-13.o)
coap_set_header_location_path                     contiki-cc2538dk.a(er-coap-13.o)
                                                  contiki-cc2538dk.a(er-coap-13-engi)
coap_set_header_location_query                    contiki-cc2538dk.a(er-coap-13.o)
coap_set_header_max_age                           contiki-cc2538dk.a(er-coap-13.o)
                                                  contiki-cc2538dk.a(er-coap-13-engi)
coap_set_header_observe                           contiki-cc2538dk.a(er-coap-13.o)
                                                  contiki-cc2538dk.a(er-coap-13-obse)
coap_set_header_proxy_uri                         contiki-cc2538dk.a(er-coap-13.o)
coap_set_header_size                              contiki-cc2538dk.a(er-coap-13.o)
                                                  contiki-cc2538dk.a(er-coap-13-engi)
coap_set_header_token                             contiki-cc2538dk.a(er-coap-13.o)
                                                  contiki-cc2538dk.a(er-coap-13-obse)
                                                  contiki-cc2538dk.a(er-coap-13-engi)
coap_set_header_uri_host                          contiki-cc2538dk.a(er-coap-13.o)
coap_set_header_uri_path                          contiki-cc2538dk.a(er-coap-13.o)
                                                  contiki-cc2538dk.a(er-coap-13-engi)
coap_set_header_uri_query                         contiki-cc2538dk.a(er-coap-13.o)
coap_set_payload                                  contiki-cc2538dk.a(er-coap-13.o)
                                                  contiki-cc2538dk.a(er-coap-13-obse)
                                                  contiki-cc2538dk.a(er-coap-13-engi)
coap_set_service_callback                         contiki-cc2538dk.a(er-coap-13-engi)
coap_set_status_code                              contiki-cc2538dk.a(er-coap-13.o)
                                                  contiki-cc2538dk.a(er-coap-13-engi)
contikimac_debug_print                            contiki-cc2538dk.a(contikimac.o)
contikimac_driver                                 contiki-cc2538dk.a(contikimac.o)
                                                  contiki-cc2538dk.a(csma.o)
                                                  contiki-cc2538dk.a(netstack.o)
                                                  contiki-cc2538dk.a(cc2538-rf.o)
                                                  contiki-cc2538dk.a(contiki-main.o)
                                                  obj_cc2538dk/webserver.o
cpu_cpsid                                         contiki-cc2538dk.a(cpu.o)
                                                  contiki-cc2538dk.a(watchdog.o)
                                                  contiki-cc2538dk.a(rtimer-arch.o)
cpu_cpsie                                         contiki-cc2538dk.a(cpu.o)
                                                  contiki-cc2538dk.a(rtimer-arch.o)
                                                  contiki-cc2538dk.a(contiki-main.o)
csma_allocated_neighbors                          contiki-cc2538dk.a(csma.o)
csma_allocated_packets                            contiki-cc2538dk.a(csma.o)
csma_collisions                                   contiki-cc2538dk.a(csma.o)
csma_deferred                                     contiki-cc2538dk.a(csma.o)
csma_driver                                       contiki-cc2538dk.a(csma.o)
                                                  contiki-cc2538dk.a(contikimac.o)
                                                  contiki-cc2538dk.a(sicslowpan.o)
                                                  contiki-cc2538dk.a(netstack.o)
                                                  contiki-cc2538dk.a(contiki-main.o)
                                                  obj_cc2538dk/webserver.o
csma_dropped                                      contiki-cc2538dk.a(csma.o)
csma_noack                                        contiki-cc2538dk.a(csma.o)
csma_received_packets                             contiki-cc2538dk.a(csma.o)
csma_retransmissions                              contiki-cc2538dk.a(csma.o)
csma_sent_packets                                 contiki-cc2538dk.a(csma.o)
ctimer_expired                                    contiki-cc2538dk.a(ctimer.o)
ctimer_init                                       contiki-cc2538dk.a(ctimer.o)
                                                  contiki-cc2538dk.a(contiki-main.o)
ctimer_process                                    contiki-cc2538dk.a(ctimer.o)
ctimer_reset                                      contiki-cc2538dk.a(ctimer.o)
                                                  contiki-cc2538dk.a(rpl-timers.o)
ctimer_restart                                    contiki-cc2538dk.a(ctimer.o)
ctimer_set                                        contiki-cc2538dk.a(ctimer.o)
                                                  contiki-cc2538dk.a(contikimac.o)
                                                  contiki-cc2538dk.a(rpl-timers.o)
                                                  contiki-cc2538dk.a(csma.o)
ctimer_stop                                       contiki-cc2538dk.a(ctimer.o)
                                                  contiki-cc2538dk.a(contikimac.o)
                                                  contiki-cc2538dk.a(rpl-timers.o)
                                                  contiki-cc2538dk.a(rpl-dag.o)
                                                  contiki-cc2538dk.a(csma.o)
dao_ack_output                                    contiki-cc2538dk.a(rpl-icmp6.o)
dao_output                                        contiki-cc2538dk.a(rpl-icmp6.o)
                                                  contiki-cc2538dk.a(rpl-timers.o)
                                                  contiki-cc2538dk.a(rpl-dag.o)
dao_output_target                                 contiki-cc2538dk.a(rpl-icmp6.o)
                                                  contiki-cc2538dk.a(rpl-ext-header.)
                                                  contiki-cc2538dk.a(rpl.o)
dbg_send_bytes                                    contiki-cc2538dk.a(dbg.o)
                                                  contiki-cc2538dk.a(dbg-printf.o)
default_handler                                   obj_cc2538dk/startup-gcc.o
default_instance                                  contiki-cc2538dk.a(rpl-ext-header.)
                                                  contiki-cc2538dk.a(rpl-dag.o)
                                                  contiki-cc2538dk.a(rpl.o)
dest_addr                                         obj_cc2538dk/udp-client.o
dio_output                                        contiki-cc2538dk.a(rpl-icmp6.o)
                                                  contiki-cc2538dk.a(rpl-timers.o)
dis_output                                        contiki-cc2538dk.a(rpl-icmp6.o)
                                                  contiki-cc2538dk.a(rpl-timers.o)
                                                  obj_cc2538dk/webserver.o
ds6_neighbors                                     contiki-cc2538dk.a(uip-ds6-nbr.o)
                                                  obj_cc2538dk/webserver.o
enc28j60_arch_spi_deselect                        obj_cc2538dk/enc28j60-arch-spi.o
                                                  obj_cc2538dk/enc28j60.o
enc28j60_arch_spi_init                            obj_cc2538dk/enc28j60-arch-spi.o
                                                  obj_cc2538dk/enc28j60.o
enc28j60_arch_spi_read                            obj_cc2538dk/enc28j60-arch-spi.o
                                                  obj_cc2538dk/enc28j60.o
enc28j60_arch_spi_select                          obj_cc2538dk/enc28j60-arch-spi.o
                                                  obj_cc2538dk/enc28j60.o
enc28j60_arch_spi_write                           obj_cc2538dk/enc28j60-arch-spi.o
                                                  obj_cc2538dk/enc28j60.o
enc28j60_init                                     obj_cc2538dk/enc28j60.o
                                                  obj_cc2538dk/enc28j60-drv.o
enc28j60_pollhandler                              obj_cc2538dk/enc28j60-drv.o
enc28j60_read                                     obj_cc2538dk/enc28j60.o
                                                  obj_cc2538dk/enc28j60-drv.o
enc28j60_send                                     obj_cc2538dk/enc28j60.o
                                                  obj_cc2538dk/enc28j60-drv.o
enc_watchdog_process                              obj_cc2538dk/enc28j60.o
energest_flush                                    contiki-cc2538dk.a(energest.o)
energest_init                                     contiki-cc2538dk.a(energest.o)
                                                  contiki-cc2538dk.a(contiki-main.o)
energest_type_set                                 contiki-cc2538dk.a(energest.o)
energest_type_time                                contiki-cc2538dk.a(energest.o)
errno                                             /home/user/CodeSourcery/Sourcery_G++_Lite/bin/../lib/gcc/arm-none-eabi/4.3.2/../../../../arm-none-eabi/lib/thumb2/libc.a(lib_a-sbrkr.o)
                                                  /home/user/CodeSourcery/Sourcery_G++_Lite/bin/../lib/gcc/arm-none-eabi/4.3.2/../../../../arm-none-eabi/lib/thumb2/libc.a(lib_a-reent.o)
                                                  /home/user/CodeSourcery/Sourcery_G++_Lite/bin/../lib/gcc/arm-none-eabi/4.3.2/../../../../arm-none-eabi/lib/thumb2/libc.a(lib_a-gettimeofdayr.o)
eth_dft_router                                    cetic-6lbr.co
eth_drv_exit                                      obj_cc2538dk/enc28j60-drv.o
eth_drv_init                                      obj_cc2538dk/enc28j60-drv.o
eth_drv_input                                     obj_cc2538dk/enc28j60-drv.o
eth_drv_process                                   obj_cc2538dk/enc28j60-drv.o
                                                  cetic-6lbr.co
eth_drv_send                                      obj_cc2538dk/enc28j60-drv.o
                                                  obj_cc2538dk/packet-filter.o
eth_input                                         obj_cc2538dk/packet-filter.o
                                                  obj_cc2538dk/enc28j60-drv.o
eth_ip_addr                                       obj_cc2538dk/webserver.o
                                                  cetic-6lbr.co
eth_ip_local_addr                                 obj_cc2538dk/packet-filter.o
                                                  obj_cc2538dk/webserver.o
                                                  cetic-6lbr.co
eth_mac64_addr                                    obj_cc2538dk/packet-filter.o
                                                  cetic-6lbr.co
eth_mac_addr                                      obj_cc2538dk/enc28j60-drv.o
                                                  obj_cc2538dk/cc2538dk-init.o
                                                  obj_cc2538dk/sicslow-ethernet.o
                                                  obj_cc2538dk/packet-filter.o
                                                  obj_cc2538dk/webserver.o
                                                  cetic-6lbr.co
eth_mac_addr_ready                                cetic-6lbr.co
                                                  obj_cc2538dk/cc2538dk-init.o
                                                  obj_cc2538dk/sicslow-ethernet.o
eth_net_prefix                                    obj_cc2538dk/packet-filter.o
                                                  cetic-6lbr.co
ethernet_ready                                    cetic-6lbr.co
                                                  obj_cc2538dk/enc28j60-drv.o
etimer_adjust                                     contiki-cc2538dk.a(etimer.o)
etimer_expiration_time                            contiki-cc2538dk.a(etimer.o)
                                                  contiki-cc2538dk.a(rpl-timers.o)
                                                  obj_cc2538dk/webserver.o
etimer_expired                                    contiki-cc2538dk.a(etimer.o)
                                                  contiki-cc2538dk.a(rpl-timers.o)
                                                  contiki-cc2538dk.a(tcpip.o)
                                                  contiki-cc2538dk.a(ctimer.o)
                                                  contiki-cc2538dk.a(erbium.o)
                                                  contiki-cc2538dk.a(er-coap-13-tran)
                                                  obj_cc2538dk/enc28j60.o
                                                  obj_cc2538dk/udp-client.o
etimer_next_expiration_time                       contiki-cc2538dk.a(etimer.o)
etimer_pending                                    contiki-cc2538dk.a(etimer.o)
                                                  contiki-cc2538dk.a(clock.o)
etimer_process                                    contiki-cc2538dk.a(etimer.o)
                                                  contiki-cc2538dk.a(contiki-main.o)
etimer_request_poll                               contiki-cc2538dk.a(etimer.o)
                                                  contiki-cc2538dk.a(clock.o)
etimer_reset                                      contiki-cc2538dk.a(etimer.o)
                                                  contiki-cc2538dk.a(uip-ds6.o)
                                                  contiki-cc2538dk.a(ctimer.o)
                                                  contiki-cc2538dk.a(erbium.o)
etimer_restart                                    contiki-cc2538dk.a(etimer.o)
                                                  contiki-cc2538dk.a(tcpip.o)
                                                  contiki-cc2538dk.a(ctimer.o)
                                                  contiki-cc2538dk.a(er-coap-13-tran)
etimer_set                                        contiki-cc2538dk.a(etimer.o)
                                                  contiki-cc2538dk.a(tcpip.o)
                                                  contiki-cc2538dk.a(uip-ds6.o)
                                                  contiki-cc2538dk.a(ctimer.o)
                                                  contiki-cc2538dk.a(erbium.o)
                                                  obj_cc2538dk/enc28j60.o
                                                  obj_cc2538dk/udp-client.o
                                                  cetic-6lbr.co
etimer_start_time                                 contiki-cc2538dk.a(etimer.o)
etimer_stop                                       contiki-cc2538dk.a(etimer.o)
                                                  contiki-cc2538dk.a(ctimer.o)
                                                  contiki-cc2538dk.a(er-coap-13-tran)
format_str                                        contiki-cc2538dk.a(strformat.o)
format_str_v                                      contiki-cc2538dk.a(strformat.o)
                                                  contiki-cc2538dk.a(dbg-sprintf.o)
                                                  contiki-cc2538dk.a(dbg-snprintf.o)
                                                  contiki-cc2538dk.a(dbg-printf.o)
frag_sender                                       contiki-cc2538dk.a(sicslowpan.o)
frame802154_create                                contiki-cc2538dk.a(frame802154.o)
                                                  contiki-cc2538dk.a(framer-802154.o)
frame802154_hdrlen                                contiki-cc2538dk.a(frame802154.o)
                                                  contiki-cc2538dk.a(framer-802154.o)
frame802154_parse                                 contiki-cc2538dk.a(frame802154.o)
                                                  contiki-cc2538dk.a(framer-802154.o)
framer_802154                                     contiki-cc2538dk.a(framer-802154.o)
                                                  contiki-cc2538dk.a(contikimac.o)
                                                  contiki-cc2538dk.a(sicslowpan.o)
get_match_length                                  contiki-cc2538dk.a(uip-ds6.o)
gettimeofday                                      /home/user/CodeSourcery/Sourcery_G++_Lite/bin/../lib/gcc/arm-none-eabi/4.3.2/../../../../arm-none-eabi/lib/thumb2/libc.a(lib_a-sysgettod.o)
                                                  obj_cc2538dk/log-6lbr.o
gpio_init                                         contiki-cc2538dk.a(gpio.o)
                                                  contiki-cc2538dk.a(contiki-main.o)
gpio_port_a_isr                                   contiki-cc2538dk.a(gpio.o)
                                                  obj_cc2538dk/startup-gcc.o
gpio_port_b_isr                                   contiki-cc2538dk.a(gpio.o)
                                                  obj_cc2538dk/startup-gcc.o
gpio_port_c_isr                                   contiki-cc2538dk.a(gpio.o)
                                                  obj_cc2538dk/startup-gcc.o
gpio_port_d_isr                                   contiki-cc2538dk.a(gpio.o)
                                                  obj_cc2538dk/startup-gcc.o
gpio_register_callback                            contiki-cc2538dk.a(gpio.o)
                                                  contiki-cc2538dk.a(button-sensor.o)
http_content_type_html                            obj_cc2538dk/httpd-simple.o
http_get                                          obj_cc2538dk/httpd-simple.o
http_header_200                                   obj_cc2538dk/httpd-simple.o
http_header_404                                   obj_cc2538dk/httpd-simple.o
http_index_html                                   obj_cc2538dk/httpd-simple.o
httpd_appcall                                     obj_cc2538dk/httpd-simple.o
                                                  obj_cc2538dk/webserver.o
httpd_init                                        obj_cc2538dk/httpd-simple.o
                                                  obj_cc2538dk/webserver.o
httpd_simple_get_script                           obj_cc2538dk/webserver.o
                                                  obj_cc2538dk/httpd-simple.o
icmp6_new                                         contiki-cc2538dk.a(tcpip.o)
ieee_addr_cpy_to                                  contiki-cc2538dk.a(ieee-addr.o)
                                                  contiki-cc2538dk.a(contiki-main.o)
index                                             /home/user/CodeSourcery/Sourcery_G++_Lite/bin/../lib/gcc/arm-none-eabi/4.3.2/../../../../arm-none-eabi/lib/thumb2/libc.a(lib_a-index.o)
                                                  obj_cc2538dk/node-info.o
                                                  obj_cc2538dk/webserver.o
instance_table                                    contiki-cc2538dk.a(rpl-icmp6.o)
                                                  contiki-cc2538dk.a(rpl-dag.o)
                                                  contiki-cc2538dk.a(rpl.o)
                                                  obj_cc2538dk/webserver.o
ioc_init                                          contiki-cc2538dk.a(ioc.o)
                                                  contiki-cc2538dk.a(contiki-main.o)
ioc_set_over                                      contiki-cc2538dk.a(ioc.o)
                                                  contiki-cc2538dk.a(spi.o)
                                                  contiki-cc2538dk.a(uart.o)
                                                  contiki-cc2538dk.a(adc-sensor.o)
                                                  contiki-cc2538dk.a(button-sensor.o)
ioc_set_sel                                       contiki-cc2538dk.a(ioc.o)
                                                  contiki-cc2538dk.a(spi.o)
                                                  contiki-cc2538dk.a(uart.o)
leds_arch_get                                     contiki-cc2538dk.a(leds-arch.o)
                                                  contiki-cc2538dk.a(leds.o)
leds_arch_init                                    contiki-cc2538dk.a(leds-arch.o)
                                                  contiki-cc2538dk.a(leds.o)
leds_arch_set                                     contiki-cc2538dk.a(leds-arch.o)
                                                  contiki-cc2538dk.a(leds.o)
leds_blink                                        contiki-cc2538dk.a(leds.o)
leds_get                                          contiki-cc2538dk.a(leds.o)
leds_init                                         contiki-cc2538dk.a(leds.o)
                                                  contiki-cc2538dk.a(contiki-main.o)
leds_invert                                       contiki-cc2538dk.a(leds.o)
leds_off                                          contiki-cc2538dk.a(leds.o)
                                                  contiki-cc2538dk.a(contiki-main.o)
leds_on                                           contiki-cc2538dk.a(leds.o)
                                                  contiki-cc2538dk.a(contiki-main.o)
leds_toggle                                       contiki-cc2538dk.a(leds.o)
linkaddr_cmp                                      contiki-cc2538dk.a(linkaddr.o)
                                                  contiki-cc2538dk.a(mac-sequence.o)
                                                  contiki-cc2538dk.a(contikimac.o)
                                                  contiki-cc2538dk.a(framer-802154.o)
                                                  contiki-cc2538dk.a(csma.o)
                                                  contiki-cc2538dk.a(uip-ds6-nbr.o)
                                                  contiki-cc2538dk.a(sicslowpan.o)
                                                  contiki-cc2538dk.a(nbr-table.o)
                                                  obj_cc2538dk/packet-filter.o
linkaddr_copy                                     contiki-cc2538dk.a(linkaddr.o)
                                                  contiki-cc2538dk.a(mac-sequence.o)
                                                  contiki-cc2538dk.a(frame802154.o)
                                                  contiki-cc2538dk.a(framer-802154.o)
                                                  contiki-cc2538dk.a(csma.o)
                                                  contiki-cc2538dk.a(sicslowpan.o)
                                                  contiki-cc2538dk.a(packetbuf.o)
                                                  contiki-cc2538dk.a(nbr-table.o)
                                                  obj_cc2538dk/cc2538dk-init.o
                                                  obj_cc2538dk/packet-filter.o
linkaddr_node_addr                                contiki-cc2538dk.a(contikimac.o)
                                                  contiki-cc2538dk.a(framer-802154.o)
                                                  contiki-cc2538dk.a(linkaddr.o)
                                                  contiki-cc2538dk.a(cc2538-rf.o)
                                                  contiki-cc2538dk.a(contiki-main.o)
                                                  obj_cc2538dk/cc2538dk-init.o
linkaddr_null                                     contiki-cc2538dk.a(linkaddr.o)
                                                  contiki-cc2538dk.a(frame802154.o)
                                                  contiki-cc2538dk.a(contikimac.o)
                                                  contiki-cc2538dk.a(framer-802154.o)
                                                  contiki-cc2538dk.a(uip-ds6-nbr.o)
                                                  contiki-cc2538dk.a(sicslowpan.o)
                                                  contiki-cc2538dk.a(packetbuf.o)
                                                  contiki-cc2538dk.a(nbr-table.o)
                                                  obj_cc2538dk/packet-filter.o
linkaddr_set_node_addr                            contiki-cc2538dk.a(linkaddr.o)
                                                  obj_cc2538dk/cc2538dk-init.o
list_add                                          contiki-cc2538dk.a(list.o)
                                                  contiki-cc2538dk.a(csma.o)
                                                  contiki-cc2538dk.a(uip-icmp6.o)
                                                  contiki-cc2538dk.a(uip-ds6-route.o)
                                                  contiki-cc2538dk.a(nbr-table.o)
                                                  contiki-cc2538dk.a(ctimer.o)
                                                  contiki-cc2538dk.a(erbium.o)
                                                  contiki-cc2538dk.a(er-coap-13-obse)
                                                  contiki-cc2538dk.a(er-coap-13-tran)
list_chop                                         contiki-cc2538dk.a(list.o)
list_copy                                         contiki-cc2538dk.a(list.o)
list_head                                         contiki-cc2538dk.a(list.o)
                                                  contiki-cc2538dk.a(csma.o)
                                                  contiki-cc2538dk.a(uip-icmp6.o)
                                                  contiki-cc2538dk.a(uip-ds6-route.o)
                                                  contiki-cc2538dk.a(nbr-table.o)
                                                  contiki-cc2538dk.a(ctimer.o)
                                                  contiki-cc2538dk.a(erbium.o)
                                                  contiki-cc2538dk.a(er-coap-13-obse)
                                                  contiki-cc2538dk.a(er-coap-13-tran)
                                                  contiki-cc2538dk.a(er-coap-13-engi)
list_init                                         contiki-cc2538dk.a(list.o)
                                                  contiki-cc2538dk.a(csma.o)
                                                  contiki-cc2538dk.a(uip-ds6-route.o)
                                                  contiki-cc2538dk.a(ctimer.o)
                                                  contiki-cc2538dk.a(erbium.o)
list_insert                                       contiki-cc2538dk.a(list.o)
list_item_next                                    contiki-cc2538dk.a(list.o)
                                                  contiki-cc2538dk.a(contikimac.o)
                                                  contiki-cc2538dk.a(csma.o)
                                                  contiki-cc2538dk.a(uip-icmp6.o)
                                                  contiki-cc2538dk.a(uip-ds6-route.o)
                                                  contiki-cc2538dk.a(nbr-table.o)
                                                  obj_cc2538dk/webserver.o
list_length                                       contiki-cc2538dk.a(list.o)
                                                  contiki-cc2538dk.a(csma.o)
                                                  contiki-cc2538dk.a(uip-ds6-route.o)
                                                  contiki-cc2538dk.a(er-coap-13-obse)
list_pop                                          contiki-cc2538dk.a(list.o)
list_push                                         contiki-cc2538dk.a(list.o)
                                                  contiki-cc2538dk.a(csma.o)
                                                  contiki-cc2538dk.a(uip-ds6-route.o)
list_remove                                       contiki-cc2538dk.a(list.o)
                                                  contiki-cc2538dk.a(csma.o)
                                                  contiki-cc2538dk.a(uip-icmp6.o)
                                                  contiki-cc2538dk.a(uip-ds6-route.o)
                                                  contiki-cc2538dk.a(nbr-table.o)
                                                  contiki-cc2538dk.a(ctimer.o)
                                                  contiki-cc2538dk.a(er-coap-13-obse)
                                                  contiki-cc2538dk.a(er-coap-13-tran)
list_tail                                         contiki-cc2538dk.a(list.o)
ll_header                                         obj_cc2538dk/enc28j60-drv.o
                                                  obj_cc2538dk/enc28j60.o
                                                  obj_cc2538dk/packet-filter.o
llprefix                                          contiki-cc2538dk.a(sicslowpan.o)
load_nvm_config                                   obj_cc2538dk/nvm-config.o
                                                  cetic-6lbr.co
localtime_r                                       /home/user/CodeSourcery/Sourcery_G++_Lite/bin/../lib/gcc/arm-none-eabi/4.3.2/../../../../arm-none-eabi/lib/thumb2/libc.a(lib_a-lcltime_r.o)
                                                  obj_cc2538dk/log-6lbr.o
log6lbr_ethaddr_print                             obj_cc2538dk/log-6lbr.o
                                                  obj_cc2538dk/cc2538dk-init.o
log6lbr_timestamp                                 obj_cc2538dk/log-6lbr.o
lpm_enter                                         contiki-cc2538dk.a(lpm.o)
                                                  contiki-cc2538dk.a(contiki-main.o)
lpm_exit                                          contiki-cc2538dk.a(lpm.o)
                                                  contiki-cc2538dk.a(gpio.o)
                                                  contiki-cc2538dk.a(rtimer-arch.o)
lpm_init                                          contiki-cc2538dk.a(lpm.o)
                                                  contiki-cc2538dk.a(contiki-main.o)
lpm_register_peripheral                           contiki-cc2538dk.a(lpm.o)
                                                  contiki-cc2538dk.a(uart.o)
lpm_set_max_pm                                    contiki-cc2538dk.a(lpm.o)
mac_call_sent_callback                            contiki-cc2538dk.a(mac.o)
                                                  contiki-cc2538dk.a(contikimac.o)
                                                  contiki-cc2538dk.a(csma.o)
mac_createDefaultEthernetAddr                     obj_cc2538dk/sicslow-ethernet.o
mac_createEthernetAddr                            obj_cc2538dk/sicslow-ethernet.o
                                                  obj_cc2538dk/cc2538dk-init.o
                                                  obj_cc2538dk/packet-filter.o
mac_createSicslowpanLongAddr                      obj_cc2538dk/sicslow-ethernet.o
                                                  obj_cc2538dk/packet-filter.o
mac_sequence_is_duplicate                         contiki-cc2538dk.a(mac-sequence.o)
                                                  contiki-cc2538dk.a(contikimac.o)
mac_sequence_register_seqno                       contiki-cc2538dk.a(mac-sequence.o)
                                                  contiki-cc2538dk.a(contikimac.o)
mac_translateIPLinkLayer                          obj_cc2538dk/sicslow-ethernet.o
                                                  obj_cc2538dk/packet-filter.o
mac_translateIcmpLinkLayer                        obj_cc2538dk/sicslow-ethernet.o
main                                              contiki-cc2538dk.a(contiki-main.o)
                                                  obj_cc2538dk/startup-gcc.o
memb_alloc                                        contiki-cc2538dk.a(memb.o)
                                                  contiki-cc2538dk.a(csma.o)
                                                  contiki-cc2538dk.a(uip-ds6-route.o)
                                                  contiki-cc2538dk.a(queuebuf.o)
                                                  contiki-cc2538dk.a(nbr-table.o)
                                                  contiki-cc2538dk.a(er-coap-13-obse)
                                                  contiki-cc2538dk.a(er-coap-13-tran)
                                                  obj_cc2538dk/httpd-simple.o
memb_count                                        contiki-cc2538dk.a(memb.o)
                                                  contiki-cc2538dk.a(csma.o)
                                                  contiki-cc2538dk.a(queuebuf.o)
memb_free                                         contiki-cc2538dk.a(memb.o)
                                                  contiki-cc2538dk.a(csma.o)
                                                  contiki-cc2538dk.a(uip-ds6-route.o)
                                                  contiki-cc2538dk.a(queuebuf.o)
                                                  contiki-cc2538dk.a(er-coap-13-obse)
                                                  contiki-cc2538dk.a(er-coap-13-tran)
                                                  obj_cc2538dk/httpd-simple.o
memb_init                                         contiki-cc2538dk.a(memb.o)
                                                  contiki-cc2538dk.a(csma.o)
                                                  contiki-cc2538dk.a(uip-ds6-route.o)
                                                  contiki-cc2538dk.a(queuebuf.o)
                                                  obj_cc2538dk/httpd-simple.o
memb_inmemb                                       contiki-cc2538dk.a(memb.o)
                                                  contiki-cc2538dk.a(queuebuf.o)
memchr                                            /home/user/CodeSourcery/Sourcery_G++_Lite/bin/../lib/gcc/arm-none-eabi/4.3.2/../../../../arm-none-eabi/lib/thumb2/libc.a(lib_a-memchr.o)
                                                  /home/user/CodeSourcery/Sourcery_G++_Lite/bin/../lib/gcc/arm-none-eabi/4.3.2/../../../../arm-none-eabi/lib/thumb2/libc.a(lib_a-strstr.o)
                                                  contiki-cc2538dk.a(er-coap-13.o)
memcmp                                            /home/user/CodeSourcery/Sourcery_G++_Lite/bin/../lib/gcc/arm-none-eabi/4.3.2/../../../../arm-none-eabi/lib/thumb2/libc.a(lib_a-memcmp.o)
                                                  /home/user/CodeSourcery/Sourcery_G++_Lite/bin/../lib/gcc/arm-none-eabi/4.3.2/../../../../arm-none-eabi/lib/thumb2/libc.a(lib_a-strstr.o)
                                                  contiki-cc2538dk.a(rpl-icmp6.o)
                                                  contiki-cc2538dk.a(rpl-dag.o)
                                                  contiki-cc2538dk.a(rpl.o)
                                                  contiki-cc2538dk.a(tcpip.o)
                                                  contiki-cc2538dk.a(uip-nd6.o)
                                                  contiki-cc2538dk.a(uip-ds6-route.o)
                                                  contiki-cc2538dk.a(uip-ds6-nbr.o)
                                                  contiki-cc2538dk.a(uip-ds6.o)
                                                  contiki-cc2538dk.a(uip6.o)
                                                  contiki-cc2538dk.a(sicslowpan.o)
                                                  contiki-cc2538dk.a(linkaddr.o)
                                                  contiki-cc2538dk.a(er-coap-13-obse)
                                                  obj_cc2538dk/sicslow-ethernet.o
                                                  obj_cc2538dk/packet-filter.o
                                                  obj_cc2538dk/udp-client.o
                                                  obj_cc2538dk/webserver.o
memcpy                                            /home/user/CodeSourcery/Sourcery_G++_Lite/bin/../lib/gcc/arm-none-eabi/4.3.2/../../../../arm-none-eabi/lib/thumb2/libc.a(lib_a-memcpy.o)
                                                  contiki-cc2538dk.a(mac-sequence.o)
                                                  contiki-cc2538dk.a(rpl-icmp6.o)
                                                  contiki-cc2538dk.a(rpl-dag.o)
                                                  contiki-cc2538dk.a(uip-udp-packet.)
                                                  contiki-cc2538dk.a(psock.o)
                                                  contiki-cc2538dk.a(uip-nd6.o)
                                                  contiki-cc2538dk.a(uip-icmp6.o)
                                                  contiki-cc2538dk.a(uip-ds6-route.o)
                                                  contiki-cc2538dk.a(uip-ds6-nbr.o)
                                                  contiki-cc2538dk.a(uip-ds6.o)
                                                  contiki-cc2538dk.a(uip6.o)
                                                  contiki-cc2538dk.a(sicslowpan.o)
                                                  contiki-cc2538dk.a(queuebuf.o)
                                                  contiki-cc2538dk.a(packetbuf.o)
                                                  contiki-cc2538dk.a(linkaddr.o)
                                                  contiki-cc2538dk.a(dbg-sprintf.o)
                                                  contiki-cc2538dk.a(dbg-snprintf.o)
                                                  contiki-cc2538dk.a(contiki-main.o)
                                                  contiki-cc2538dk.a(er-coap-13-udp.)
                                                  contiki-cc2538dk.a(er-coap-13-obse)
                                                  contiki-cc2538dk.a(er-coap-13-tran)
                                                  contiki-cc2538dk.a(er-coap-13.o)
                                                  obj_cc2538dk/enc28j60.o
                                                  obj_cc2538dk/nvm-config.o
                                                  obj_cc2538dk/sicslow-ethernet.o
                                                  obj_cc2538dk/packet-filter.o
                                                  obj_cc2538dk/rio.o
                                                  obj_cc2538dk/node-info.o
                                                  obj_cc2538dk/udp-client.o
                                                  obj_cc2538dk/udp-server.o
                                                  obj_cc2538dk/webserver.o
                                                  cetic-6lbr.co
memmove                                           /home/user/CodeSourcery/Sourcery_G++_Lite/bin/../lib/gcc/arm-none-eabi/4.3.2/../../../../arm-none-eabi/lib/thumb2/libc.a(lib_a-memmove.o)
                                                  contiki-cc2538dk.a(rpl-ext-header.)
                                                  contiki-cc2538dk.a(uiplib.o)
                                                  contiki-cc2538dk.a(uip-icmp6.o)
                                                  contiki-cc2538dk.a(uip6.o)
                                                  contiki-cc2538dk.a(sicslowpan.o)
                                                  contiki-cc2538dk.a(er-coap-13.o)
memset                                            /home/user/CodeSourcery/Sourcery_G++_Lite/bin/../lib/gcc/arm-none-eabi/4.3.2/../../../../arm-none-eabi/lib/thumb2/libc.a(lib_a-memset.o)
                                                  contiki-cc2538dk.a(frame802154.o)
                                                  contiki-cc2538dk.a(contikimac.o)
                                                  contiki-cc2538dk.a(rpl-icmp6.o)
                                                  contiki-cc2538dk.a(rpl-ext-header.)
                                                  contiki-cc2538dk.a(rpl-dag.o)
                                                  contiki-cc2538dk.a(uiplib.o)
                                                  contiki-cc2538dk.a(framer-802154.o)
                                                  contiki-cc2538dk.a(uip-nd6.o)
                                                  contiki-cc2538dk.a(uip-ds6-route.o)
                                                  contiki-cc2538dk.a(uip-ds6.o)
                                                  contiki-cc2538dk.a(uip6.o)
                                                  contiki-cc2538dk.a(sicslowpan.o)
                                                  contiki-cc2538dk.a(nbr-table.o)
                                                  contiki-cc2538dk.a(memb.o)
                                                  contiki-cc2538dk.a(udma.o)
                                                  contiki-cc2538dk.a(gpio.o)
                                                  contiki-cc2538dk.a(er-coap-13-udp.)
                                                  contiki-cc2538dk.a(er-coap-13.o)
                                                  obj_cc2538dk/enc28j60.o
                                                  obj_cc2538dk/node-info.o
                                                  obj_cc2538dk/udp-client.o
                                                  obj_cc2538dk/udp-server.o
nbr_table_add_lladdr                              contiki-cc2538dk.a(nbr-table.o)
                                                  contiki-cc2538dk.a(rpl-dag.o)
                                                  contiki-cc2538dk.a(uip-ds6-route.o)
                                                  contiki-cc2538dk.a(uip-ds6-nbr.o)
nbr_table_get_from_lladdr                         contiki-cc2538dk.a(nbr-table.o)
                                                  contiki-cc2538dk.a(rpl-dag.o)
                                                  contiki-cc2538dk.a(uip-ds6-route.o)
                                                  contiki-cc2538dk.a(uip-ds6-nbr.o)
nbr_table_get_lladdr                              contiki-cc2538dk.a(nbr-table.o)
                                                  contiki-cc2538dk.a(rpl-dag.o)
                                                  contiki-cc2538dk.a(uip-ds6-route.o)
                                                  contiki-cc2538dk.a(uip-ds6-nbr.o)
nbr_table_head                                    contiki-cc2538dk.a(nbr-table.o)
                                                  contiki-cc2538dk.a(rpl-dag.o)
                                                  contiki-cc2538dk.a(uip-ds6-nbr.o)
                                                  obj_cc2538dk/webserver.o
nbr_table_lock                                    contiki-cc2538dk.a(nbr-table.o)
                                                  contiki-cc2538dk.a(rpl-dag.o)
nbr_table_next                                    contiki-cc2538dk.a(nbr-table.o)
                                                  contiki-cc2538dk.a(rpl-dag.o)
                                                  contiki-cc2538dk.a(uip-ds6-nbr.o)
                                                  obj_cc2538dk/webserver.o
nbr_table_register                                contiki-cc2538dk.a(nbr-table.o)
                                                  contiki-cc2538dk.a(rpl-dag.o)
                                                  contiki-cc2538dk.a(uip-ds6-route.o)
                                                  contiki-cc2538dk.a(uip-ds6-nbr.o)
nbr_table_remove                                  contiki-cc2538dk.a(nbr-table.o)
                                                  contiki-cc2538dk.a(rpl-dag.o)
                                                  contiki-cc2538dk.a(uip-ds6-route.o)
                                                  contiki-cc2538dk.a(uip-ds6-nbr.o)
nbr_table_unlock                                  contiki-cc2538dk.a(nbr-table.o)
                                                  contiki-cc2538dk.a(rpl-dag.o)
neighbor_overflow                                 contiki-cc2538dk.a(csma.o)
netstack_init                                     contiki-cc2538dk.a(netstack.o)
                                                  contiki-cc2538dk.a(contiki-main.o)
nmi_handler                                       obj_cc2538dk/startup-gcc.o
node_info_add                                     obj_cc2538dk/node-info.o
node_info_init                                    obj_cc2538dk/node-info.o
                                                  cetic-6lbr.co
node_info_lookup                                  obj_cc2538dk/node-info.o
node_info_node_seen                               obj_cc2538dk/node-info.o
                                                  contiki-cc2538dk.a(uip6.o)
node_info_rm                                      obj_cc2538dk/node-info.o
node_info_route_notification_cb                   obj_cc2538dk/node-info.o
node_info_table                                   obj_cc2538dk/node-info.o
                                                  obj_cc2538dk/webserver.o
node_info_update                                  obj_cc2538dk/node-info.o
                                                  obj_cc2538dk/udp-server.o
notify                                            contiki-cc2538dk.a(gpio.o)
nvic_init                                         contiki-cc2538dk.a(nvic.o)
                                                  contiki-cc2538dk.a(contiki-main.o)
nvic_interrupt_disable                            contiki-cc2538dk.a(nvic.o)
                                                  contiki-cc2538dk.a(rtimer-arch.o)
nvic_interrupt_en_restore                         contiki-cc2538dk.a(nvic.o)
nvic_interrupt_en_save                            contiki-cc2538dk.a(nvic.o)
nvic_interrupt_enable                             contiki-cc2538dk.a(nvic.o)
                                                  contiki-cc2538dk.a(udma.o)
                                                  contiki-cc2538dk.a(cc2538-rf.o)
                                                  contiki-cc2538dk.a(uart.o)
                                                  contiki-cc2538dk.a(rtimer-arch.o)
                                                  contiki-cc2538dk.a(button-sensor.o)
nvic_interrupt_pend                               contiki-cc2538dk.a(nvic.o)
nvic_interrupt_unpend                             contiki-cc2538dk.a(nvic.o)
                                                  contiki-cc2538dk.a(rtimer-arch.o)
nvm_data                                          contiki-cc2538dk.a(rpl-icmp6.o)
                                                  contiki-cc2538dk.a(rpl-dag.o)
                                                  contiki-cc2538dk.a(uip-nd6.o)
                                                  contiki-cc2538dk.a(uip-ds6.o)
                                                  obj_cc2538dk/cc2538dk-nvm.o
                                                  obj_cc2538dk/cc2538dk-init.o
                                                  obj_cc2538dk/nvm-config.o
                                                  obj_cc2538dk/packet-filter.o
                                                  obj_cc2538dk/webserver.o
                                                  cetic-6lbr.co
nvm_data_read                                     obj_cc2538dk/cc2538dk-nvm.o
                                                  obj_cc2538dk/nvm-config.o
nvm_data_write                                    obj_cc2538dk/cc2538dk-nvm.o
                                                  obj_cc2538dk/nvm-config.o
packet_filter_init                                obj_cc2538dk/packet-filter.o
                                                  cetic-6lbr.co
packet_overflow                                   contiki-cc2538dk.a(csma.o)
packetbuf_addr                                    contiki-cc2538dk.a(packetbuf.o)
                                                  contiki-cc2538dk.a(mac-sequence.o)
                                                  contiki-cc2538dk.a(contikimac.o)
                                                  contiki-cc2538dk.a(rpl-icmp6.o)
                                                  contiki-cc2538dk.a(rpl-ext-header.)
                                                  contiki-cc2538dk.a(framer-802154.o)
                                                  contiki-cc2538dk.a(csma.o)
                                                  contiki-cc2538dk.a(uip-ds6-nbr.o)
                                                  contiki-cc2538dk.a(sicslowpan.o)
                                                  obj_cc2538dk/packet-filter.o
packetbuf_addrs                                   contiki-cc2538dk.a(packetbuf.o)
packetbuf_attr                                    contiki-cc2538dk.a(packetbuf.o)
                                                  contiki-cc2538dk.a(mac-sequence.o)
                                                  contiki-cc2538dk.a(contikimac.o)
                                                  contiki-cc2538dk.a(framer-802154.o)
                                                  contiki-cc2538dk.a(csma.o)
                                                  contiki-cc2538dk.a(sicslowpan.o)
packetbuf_attr_clear                              contiki-cc2538dk.a(packetbuf.o)
packetbuf_attr_copyfrom                           contiki-cc2538dk.a(packetbuf.o)
                                                  contiki-cc2538dk.a(queuebuf.o)
packetbuf_attr_copyto                             contiki-cc2538dk.a(packetbuf.o)
                                                  contiki-cc2538dk.a(queuebuf.o)
packetbuf_attrs                                   contiki-cc2538dk.a(packetbuf.o)
packetbuf_clear                                   contiki-cc2538dk.a(packetbuf.o)
                                                  contiki-cc2538dk.a(sicslowpan.o)
                                                  contiki-cc2538dk.a(queuebuf.o)
                                                  contiki-cc2538dk.a(cc2538-rf.o)
packetbuf_clear_hdr                               contiki-cc2538dk.a(packetbuf.o)
packetbuf_compact                                 contiki-cc2538dk.a(packetbuf.o)
                                                  contiki-cc2538dk.a(contikimac.o)
packetbuf_copyfrom                                contiki-cc2538dk.a(packetbuf.o)
                                                  contiki-cc2538dk.a(queuebuf.o)
packetbuf_copyto                                  contiki-cc2538dk.a(packetbuf.o)
                                                  contiki-cc2538dk.a(queuebuf.o)
packetbuf_copyto_hdr                              contiki-cc2538dk.a(packetbuf.o)
                                                  contiki-cc2538dk.a(queuebuf.o)
packetbuf_datalen                                 contiki-cc2538dk.a(packetbuf.o)
                                                  contiki-cc2538dk.a(contikimac.o)
                                                  contiki-cc2538dk.a(framer-802154.o)
                                                  contiki-cc2538dk.a(sicslowpan.o)
                                                  contiki-cc2538dk.a(queuebuf.o)
packetbuf_dataptr                                 contiki-cc2538dk.a(packetbuf.o)
                                                  contiki-cc2538dk.a(contikimac.o)
                                                  contiki-cc2538dk.a(framer-802154.o)
                                                  contiki-cc2538dk.a(sicslowpan.o)
                                                  contiki-cc2538dk.a(cc2538-rf.o)
packetbuf_hdr_remove                              contiki-cc2538dk.a(packetbuf.o)
                                                  contiki-cc2538dk.a(contikimac.o)
packetbuf_hdralloc                                contiki-cc2538dk.a(packetbuf.o)
                                                  contiki-cc2538dk.a(framer-802154.o)
                                                  contiki-cc2538dk.a(queuebuf.o)
packetbuf_hdrlen                                  contiki-cc2538dk.a(packetbuf.o)
packetbuf_hdrptr                                  contiki-cc2538dk.a(packetbuf.o)
                                                  contiki-cc2538dk.a(contikimac.o)
                                                  contiki-cc2538dk.a(framer-802154.o)
                                                  contiki-cc2538dk.a(queuebuf.o)
packetbuf_hdrreduce                               contiki-cc2538dk.a(packetbuf.o)
                                                  contiki-cc2538dk.a(framer-802154.o)
packetbuf_is_reference                            contiki-cc2538dk.a(packetbuf.o)
                                                  contiki-cc2538dk.a(queuebuf.o)
packetbuf_reference                               contiki-cc2538dk.a(packetbuf.o)
packetbuf_reference_ptr                           contiki-cc2538dk.a(packetbuf.o)
                                                  contiki-cc2538dk.a(queuebuf.o)
packetbuf_set_addr                                contiki-cc2538dk.a(packetbuf.o)
                                                  contiki-cc2538dk.a(contikimac.o)
                                                  contiki-cc2538dk.a(framer-802154.o)
                                                  contiki-cc2538dk.a(sicslowpan.o)
packetbuf_set_attr                                contiki-cc2538dk.a(packetbuf.o)
                                                  contiki-cc2538dk.a(contikimac.o)
                                                  contiki-cc2538dk.a(framer-802154.o)
                                                  contiki-cc2538dk.a(csma.o)
                                                  contiki-cc2538dk.a(sicslowpan.o)
                                                  contiki-cc2538dk.a(cc2538-rf.o)
packetbuf_set_datalen                             contiki-cc2538dk.a(packetbuf.o)
                                                  contiki-cc2538dk.a(sicslowpan.o)
                                                  contiki-cc2538dk.a(cc2538-rf.o)
packetbuf_totlen                                  contiki-cc2538dk.a(packetbuf.o)
                                                  contiki-cc2538dk.a(contikimac.o)
platform_init                                     obj_cc2538dk/cc2538dk-init.o
                                                  cetic-6lbr.co
platform_set_wsn_mac                              obj_cc2538dk/cc2538dk-init.o
prefixBuffer                                      obj_cc2538dk/sicslow-ethernet.o
prefixCounter                                     obj_cc2538dk/sicslow-ethernet.o
printf                                            contiki-cc2538dk.a(dbg-printf.o)
                                                  contiki-cc2538dk.a(uip-debug.o)
                                                  contiki-cc2538dk.a(contiki-main.o)
                                                  obj_cc2538dk/enc28j60-drv.o
                                                  obj_cc2538dk/enc28j60.o
                                                  obj_cc2538dk/cc2538dk-nvm.o
                                                  obj_cc2538dk/cc2538dk-init.o
                                                  obj_cc2538dk/nvm-config.o
                                                  obj_cc2538dk/sicslow-ethernet.o
                                                  obj_cc2538dk/packet-filter.o
                                                  obj_cc2538dk/rio.o
                                                  obj_cc2538dk/log-6lbr.o
                                                  obj_cc2538dk/udp-client.o
                                                  obj_cc2538dk/udp-server.o
                                                  obj_cc2538dk/httpd-simple.o
                                                  obj_cc2538dk/webserver.o
                                                  cetic-6lbr.co
process_alloc_event                               contiki-cc2538dk.a(process.o)
                                                  contiki-cc2538dk.a(tcpip.o)
                                                  contiki-cc2538dk.a(serial-line.o)
                                                  contiki-cc2538dk.a(sensors.o)
                                                  cetic-6lbr.co
process_current                                   contiki-cc2538dk.a(process.o)
                                                  contiki-cc2538dk.a(tcpip.o)
                                                  contiki-cc2538dk.a(serial-line.o)
                                                  contiki-cc2538dk.a(etimer.o)
                                                  contiki-cc2538dk.a(ctimer.o)
                                                  contiki-cc2538dk.a(erbium.o)
                                                  contiki-cc2538dk.a(er-coap-13-tran)
                                                  contiki-cc2538dk.a(er-coap-13-engi)
                                                  obj_cc2538dk/enc28j60-drv.o
                                                  obj_cc2538dk/block-transfer.o
                                                  cetic-6lbr.co
process_exit                                      contiki-cc2538dk.a(process.o)
                                                  contiki-cc2538dk.a(autostart.o)
process_init                                      contiki-cc2538dk.a(process.o)
                                                  contiki-cc2538dk.a(contiki-main.o)
process_is_running                                contiki-cc2538dk.a(process.o)
process_list                                      contiki-cc2538dk.a(process.o)
process_nevents                                   contiki-cc2538dk.a(process.o)
                                                  contiki-cc2538dk.a(lpm.o)
process_poll                                      contiki-cc2538dk.a(process.o)
                                                  contiki-cc2538dk.a(serial-line.o)
                                                  contiki-cc2538dk.a(etimer.o)
                                                  contiki-cc2538dk.a(cc2538-rf.o)
                                                  contiki-cc2538dk.a(sensors.o)
                                                  contiki-cc2538dk.a(er-coap-13-engi)
process_post                                      contiki-cc2538dk.a(process.o)
                                                  contiki-cc2538dk.a(tcpip.o)
                                                  contiki-cc2538dk.a(serial-line.o)
                                                  contiki-cc2538dk.a(etimer.o)
                                                  contiki-cc2538dk.a(sensors.o)
                                                  contiki-cc2538dk.a(erbium.o)
                                                  obj_cc2538dk/enc28j60-drv.o
                                                  obj_cc2538dk/webserver.o
                                                  cetic-6lbr.co
process_post_synch                                contiki-cc2538dk.a(process.o)
                                                  contiki-cc2538dk.a(tcpip.o)
process_run                                       contiki-cc2538dk.a(process.o)
                                                  contiki-cc2538dk.a(contiki-main.o)
process_start                                     contiki-cc2538dk.a(process.o)
                                                  contiki-cc2538dk.a(serial-line.o)
                                                  contiki-cc2538dk.a(ctimer.o)
                                                  contiki-cc2538dk.a(autostart.o)
                                                  contiki-cc2538dk.a(cc2538-rf.o)
                                                  contiki-cc2538dk.a(contiki-main.o)
                                                  contiki-cc2538dk.a(erbium.o)
                                                  contiki-cc2538dk.a(er-coap-13-engi)
                                                  obj_cc2538dk/enc28j60.o
                                                  cetic-6lbr.co
psock_datalen                                     contiki-cc2538dk.a(psock.o)
                                                  obj_cc2538dk/httpd-simple.o
psock_generator_send                              contiki-cc2538dk.a(psock.o)
psock_init                                        contiki-cc2538dk.a(psock.o)
                                                  obj_cc2538dk/httpd-simple.o
psock_newdata                                     contiki-cc2538dk.a(psock.o)
psock_readbuf_len                                 contiki-cc2538dk.a(psock.o)
psock_readto                                      contiki-cc2538dk.a(psock.o)
                                                  obj_cc2538dk/httpd-simple.o
psock_send                                        contiki-cc2538dk.a(psock.o)
                                                  obj_cc2538dk/httpd-simple.o
                                                  obj_cc2538dk/webserver.o
putchar                                           contiki-cc2538dk.a(dbg.o)
                                                  contiki-cc2538dk.a(uip-debug.o)
                                                  obj_cc2538dk/cc2538dk-init.o
                                                  cetic-6lbr.co
puts                                              contiki-cc2538dk.a(dbg.o)
                                                  contiki-cc2538dk.a(contiki-main.o)
                                                  obj_cc2538dk/enc28j60-drv.o
                                                  obj_cc2538dk/enc28j60.o
                                                  obj_cc2538dk/cc2538dk-nvm.o
                                                  obj_cc2538dk/nvm-config.o
                                                  obj_cc2538dk/sicslow-ethernet.o
                                                  obj_cc2538dk/packet-filter.o
                                                  obj_cc2538dk/rio.o
                                                  obj_cc2538dk/udp-server.o
                                                  cetic-6lbr.co
queuebuf_addr                                     contiki-cc2538dk.a(queuebuf.o)
queuebuf_attr                                     contiki-cc2538dk.a(queuebuf.o)
                                                  contiki-cc2538dk.a(csma.o)
queuebuf_datalen                                  contiki-cc2538dk.a(queuebuf.o)
queuebuf_dataptr                                  contiki-cc2538dk.a(queuebuf.o)
queuebuf_debug_print                              contiki-cc2538dk.a(queuebuf.o)
queuebuf_free                                     contiki-cc2538dk.a(queuebuf.o)
                                                  contiki-cc2538dk.a(csma.o)
                                                  contiki-cc2538dk.a(sicslowpan.o)
queuebuf_freeslots                                contiki-cc2538dk.a(queuebuf.o)
                                                  contiki-cc2538dk.a(sicslowpan.o)
queuebuf_init                                     contiki-cc2538dk.a(queuebuf.o)
                                                  contiki-cc2538dk.a(contiki-main.o)
queuebuf_new_from_packetbuf                       contiki-cc2538dk.a(queuebuf.o)
                                                  contiki-cc2538dk.a(csma.o)
                                                  contiki-cc2538dk.a(sicslowpan.o)
queuebuf_to_packetbuf                             contiki-cc2538dk.a(queuebuf.o)
                                                  contiki-cc2538dk.a(contikimac.o)
                                                  contiki-cc2538dk.a(sicslowpan.o)
queuebuf_update_attr_from_packetbuf               contiki-cc2538dk.a(queuebuf.o)
                                                  contiki-cc2538dk.a(csma.o)
random_init                                       contiki-cc2538dk.a(random.o)
                                                  contiki-cc2538dk.a(contiki-main.o)
random_rand                                       contiki-cc2538dk.a(random.o)
                                                  contiki-cc2538dk.a(rpl-timers.o)
                                                  contiki-cc2538dk.a(framer-802154.o)
                                                  contiki-cc2538dk.a(csma.o)
                                                  contiki-cc2538dk.a(uip-ds6.o)
                                                  contiki-cc2538dk.a(er-coap-13-tran)
                                                  contiki-cc2538dk.a(er-coap-13.o)
raw_buf                                           obj_cc2538dk/sicslow-ethernet.o
remove_ext_hdr                                    contiki-cc2538dk.a(uip6.o)
reset_handler                                     obj_cc2538dk/startup-gcc.o
resource_well_known_core                          contiki-cc2538dk.a(er-coap-13-engi)
rest_activate_event_resource                      contiki-cc2538dk.a(erbium.o)
rest_activate_periodic_resource                   contiki-cc2538dk.a(erbium.o)
rest_activate_resource                            contiki-cc2538dk.a(erbium.o)
                                                  contiki-cc2538dk.a(er-coap-13-engi)
rest_get_resources                                contiki-cc2538dk.a(erbium.o)
                                                  contiki-cc2538dk.a(er-coap-13-engi)
rest_get_user_data                                contiki-cc2538dk.a(erbium.o)
rest_init_engine                                  contiki-cc2538dk.a(erbium.o)
                                                  obj_cc2538dk/coap-server.o
rest_invoke_restful_service                       contiki-cc2538dk.a(erbium.o)
rest_manager_process                              contiki-cc2538dk.a(erbium.o)
rest_set_post_handler                             contiki-cc2538dk.a(erbium.o)
rest_set_pre_handler                              contiki-cc2538dk.a(erbium.o)
rest_set_special_flags                            contiki-cc2538dk.a(erbium.o)
rest_set_user_data                                contiki-cc2538dk.a(erbium.o)
rime_sniffer_add                                  contiki-cc2538dk.a(sicslowpan.o)
rime_sniffer_remove                               contiki-cc2538dk.a(sicslowpan.o)
ringbuf_elements                                  contiki-cc2538dk.a(ringbuf.o)
ringbuf_get                                       contiki-cc2538dk.a(ringbuf.o)
                                                  contiki-cc2538dk.a(serial-line.o)
ringbuf_init                                      contiki-cc2538dk.a(ringbuf.o)
                                                  contiki-cc2538dk.a(serial-line.o)
ringbuf_put                                       contiki-cc2538dk.a(ringbuf.o)
                                                  contiki-cc2538dk.a(serial-line.o)
ringbuf_size                                      contiki-cc2538dk.a(ringbuf.o)
rpl_add_dag                                       contiki-cc2538dk.a(rpl-dag.o)
rpl_add_parent                                    contiki-cc2538dk.a(rpl-dag.o)
rpl_add_route                                     contiki-cc2538dk.a(rpl.o)
                                                  contiki-cc2538dk.a(rpl-icmp6.o)
rpl_alloc_dag                                     contiki-cc2538dk.a(rpl-dag.o)
rpl_alloc_instance                                contiki-cc2538dk.a(rpl-dag.o)
rpl_cancel_dao                                    contiki-cc2538dk.a(rpl-timers.o)
                                                  contiki-cc2538dk.a(rpl.o)
rpl_dag_init                                      contiki-cc2538dk.a(rpl-dag.o)
                                                  contiki-cc2538dk.a(rpl.o)
rpl_find_of                                       contiki-cc2538dk.a(rpl-dag.o)
rpl_find_parent                                   contiki-cc2538dk.a(rpl-dag.o)
                                                  contiki-cc2538dk.a(rpl-icmp6.o)
                                                  contiki-cc2538dk.a(rpl-ext-header.)
rpl_find_parent_any_dag                           contiki-cc2538dk.a(rpl-dag.o)
                                                  contiki-cc2538dk.a(rpl.o)
rpl_free_dag                                      contiki-cc2538dk.a(rpl-dag.o)
                                                  contiki-cc2538dk.a(rpl.o)
rpl_free_instance                                 contiki-cc2538dk.a(rpl-dag.o)
rpl_get_any_dag                                   contiki-cc2538dk.a(rpl-dag.o)
                                                  contiki-cc2538dk.a(rpl-timers.o)
                                                  obj_cc2538dk/udp-client.o
rpl_get_instance                                  contiki-cc2538dk.a(rpl-dag.o)
                                                  contiki-cc2538dk.a(rpl-icmp6.o)
                                                  contiki-cc2538dk.a(rpl-ext-header.)
                                                  obj_cc2538dk/webserver.o
rpl_get_mode                                      contiki-cc2538dk.a(rpl.o)
                                                  contiki-cc2538dk.a(rpl-timers.o)
                                                  contiki-cc2538dk.a(rpl-icmp6.o)
rpl_get_parent                                    contiki-cc2538dk.a(rpl-dag.o)
                                                  contiki-cc2538dk.a(rpl-ext-header.)
rpl_get_parent_ipaddr                             contiki-cc2538dk.a(rpl-dag.o)
                                                  contiki-cc2538dk.a(rpl-icmp6.o)
rpl_get_parent_link_metric                        contiki-cc2538dk.a(rpl-dag.o)
rpl_get_parent_rank                               contiki-cc2538dk.a(rpl-dag.o)
rpl_icmp6_register_handlers                       contiki-cc2538dk.a(rpl-icmp6.o)
                                                  contiki-cc2538dk.a(rpl.o)
rpl_init                                          contiki-cc2538dk.a(rpl.o)
                                                  contiki-cc2538dk.a(tcpip.o)
rpl_insert_header                                 contiki-cc2538dk.a(rpl-ext-header.)
                                                  contiki-cc2538dk.a(uip6.o)
rpl_invert_header                                 contiki-cc2538dk.a(rpl-ext-header.)
                                                  contiki-cc2538dk.a(uip-icmp6.o)
rpl_ipv6_neighbor_callback                        contiki-cc2538dk.a(rpl.o)
                                                  contiki-cc2538dk.a(uip-ds6-nbr.o)
rpl_join_instance                                 contiki-cc2538dk.a(rpl-dag.o)
rpl_link_neighbor_callback                        contiki-cc2538dk.a(rpl.o)
                                                  contiki-cc2538dk.a(uip-ds6-nbr.o)
rpl_local_repair                                  contiki-cc2538dk.a(rpl-dag.o)
rpl_lock_parent                                   contiki-cc2538dk.a(rpl-dag.o)
                                                  contiki-cc2538dk.a(rpl-icmp6.o)
rpl_move_parent                                   contiki-cc2538dk.a(rpl-dag.o)
rpl_mrhof                                         contiki-cc2538dk.a(rpl-mrhof.o)
                                                  contiki-cc2538dk.a(rpl-icmp6.o)
                                                  contiki-cc2538dk.a(rpl-dag.o)
                                                  contiki-cc2538dk.a(rpl.o)
rpl_nullify_parent                                contiki-cc2538dk.a(rpl-dag.o)
rpl_process_dio                                   contiki-cc2538dk.a(rpl-dag.o)
                                                  contiki-cc2538dk.a(rpl-icmp6.o)
rpl_process_parent_event                          contiki-cc2538dk.a(rpl-dag.o)
rpl_purge_dags                                    contiki-cc2538dk.a(rpl.o)
                                                  contiki-cc2538dk.a(rpl-timers.o)
rpl_purge_routes                                  contiki-cc2538dk.a(rpl.o)
                                                  contiki-cc2538dk.a(rpl-timers.o)
rpl_recalculate_ranks                             contiki-cc2538dk.a(rpl-dag.o)
                                                  contiki-cc2538dk.a(rpl-timers.o)
rpl_remove_header                                 contiki-cc2538dk.a(rpl-ext-header.)
                                                  obj_cc2538dk/packet-filter.o
rpl_remove_parent                                 contiki-cc2538dk.a(rpl-dag.o)
rpl_remove_routes                                 contiki-cc2538dk.a(rpl.o)
                                                  contiki-cc2538dk.a(rpl-dag.o)
rpl_remove_routes_by_nexthop                      contiki-cc2538dk.a(rpl.o)
                                                  contiki-cc2538dk.a(rpl-dag.o)
rpl_repair_root                                   contiki-cc2538dk.a(rpl-dag.o)
                                                  obj_cc2538dk/webserver.o
rpl_reset_dio_timer                               contiki-cc2538dk.a(rpl-timers.o)
                                                  contiki-cc2538dk.a(rpl-icmp6.o)
                                                  contiki-cc2538dk.a(rpl-ext-header.)
                                                  contiki-cc2538dk.a(rpl-dag.o)
                                                  contiki-cc2538dk.a(tcpip.o)
                                                  obj_cc2538dk/webserver.o
rpl_reset_periodic_timer                          contiki-cc2538dk.a(rpl-timers.o)
                                                  contiki-cc2538dk.a(rpl.o)
rpl_schedule_dao                                  contiki-cc2538dk.a(rpl-timers.o)
                                                  contiki-cc2538dk.a(rpl-dag.o)
rpl_schedule_dao_immediately                      contiki-cc2538dk.a(rpl-timers.o)
                                                  contiki-cc2538dk.a(rpl.o)
rpl_select_dag                                    contiki-cc2538dk.a(rpl-dag.o)
rpl_select_parent                                 contiki-cc2538dk.a(rpl-dag.o)
rpl_set_default_instance                          contiki-cc2538dk.a(rpl-dag.o)
rpl_set_default_route                             contiki-cc2538dk.a(rpl-dag.o)
rpl_set_mode                                      contiki-cc2538dk.a(rpl.o)
rpl_set_prefix                                    contiki-cc2538dk.a(rpl-dag.o)
                                                  cetic-6lbr.co
rpl_set_root                                      contiki-cc2538dk.a(rpl-dag.o)
                                                  cetic-6lbr.co
rpl_update_header_empty                           contiki-cc2538dk.a(rpl-ext-header.)
                                                  contiki-cc2538dk.a(uip6.o)
rpl_update_header_final                           contiki-cc2538dk.a(rpl-ext-header.)
                                                  contiki-cc2538dk.a(tcpip.o)
rpl_verify_header                                 contiki-cc2538dk.a(rpl-ext-header.)
                                                  contiki-cc2538dk.a(uip6.o)
rtimer_arch_init                                  contiki-cc2538dk.a(rtimer-arch.o)
                                                  contiki-cc2538dk.a(rtimer.o)
rtimer_arch_next_trigger                          contiki-cc2538dk.a(rtimer-arch.o)
                                                  contiki-cc2538dk.a(lpm.o)
rtimer_arch_now                                   contiki-cc2538dk.a(rtimer-arch.o)
                                                  contiki-cc2538dk.a(contikimac.o)
                                                  contiki-cc2538dk.a(lpm.o)
                                                  contiki-cc2538dk.a(cc2538-rf.o)
                                                  contiki-cc2538dk.a(clock.o)
rtimer_arch_schedule                              contiki-cc2538dk.a(rtimer-arch.o)
                                                  contiki-cc2538dk.a(rtimer.o)
rtimer_init                                       contiki-cc2538dk.a(rtimer.o)
                                                  contiki-cc2538dk.a(contiki-main.o)
rtimer_isr                                        contiki-cc2538dk.a(rtimer-arch.o)
                                                  obj_cc2538dk/startup-gcc.o
rtimer_run_next                                   contiki-cc2538dk.a(rtimer.o)
                                                  contiki-cc2538dk.a(rtimer-arch.o)
rtimer_set                                        contiki-cc2538dk.a(rtimer.o)
                                                  contiki-cc2538dk.a(contikimac.o)
sensors                                           contiki-cc2538dk.a(smartrf-sensors)
                                                  contiki-cc2538dk.a(sensors.o)
sensors_changed                                   contiki-cc2538dk.a(sensors.o)
                                                  contiki-cc2538dk.a(button-sensor.o)
sensors_event                                     contiki-cc2538dk.a(sensors.o)
sensors_find                                      contiki-cc2538dk.a(sensors.o)
sensors_first                                     contiki-cc2538dk.a(sensors.o)
sensors_flags                                     contiki-cc2538dk.a(smartrf-sensors)
                                                  contiki-cc2538dk.a(sensors.o)
sensors_next                                      contiki-cc2538dk.a(sensors.o)
sensors_process                                   contiki-cc2538dk.a(sensors.o)
                                                  contiki-cc2538dk.a(contiki-main.o)
serial_line_event_message                         contiki-cc2538dk.a(serial-line.o)
serial_line_init                                  contiki-cc2538dk.a(serial-line.o)
                                                  contiki-cc2538dk.a(contiki-main.o)
serial_line_input_byte                            contiki-cc2538dk.a(serial-line.o)
                                                  contiki-cc2538dk.a(contiki-main.o)
serial_line_process                               contiki-cc2538dk.a(serial-line.o)
sicslowpan_driver                                 contiki-cc2538dk.a(sicslowpan.o)
                                                  contiki-cc2538dk.a(csma.o)
                                                  contiki-cc2538dk.a(netstack.o)
                                                  contiki-cc2538dk.a(contiki-main.o)
sicslowpan_get_last_rssi                          contiki-cc2538dk.a(sicslowpan.o)
sicslowpan_init                                   contiki-cc2538dk.a(sicslowpan.o)
slide                                             obj_cc2538dk/sicslow-ethernet.o
snprintf                                          contiki-cc2538dk.a(dbg-snprintf.o)
                                                  contiki-cc2538dk.a(er-coap-13-obse)
                                                  contiki-cc2538dk.a(er-coap-13-engi)
spi_cs_init                                       contiki-cc2538dk.a(spi.o)
                                                  obj_cc2538dk/enc28j60-arch-spi.o
spi_disable                                       contiki-cc2538dk.a(spi.o)
spi_enable                                        contiki-cc2538dk.a(spi.o)
spi_init                                          contiki-cc2538dk.a(spi.o)
                                                  obj_cc2538dk/enc28j60-arch-spi.o
spi_set_mode                                      contiki-cc2538dk.a(spi.o)
                                                  obj_cc2538dk/enc28j60-arch-spi.o
sprintf                                           contiki-cc2538dk.a(dbg-sprintf.o)
                                                  obj_cc2538dk/udp-client.o
                                                  obj_cc2538dk/udp-server.o
stimer_elapsed                                    contiki-cc2538dk.a(stimer.o)
                                                  contiki-cc2538dk.a(uip-ds6.o)
stimer_expired                                    contiki-cc2538dk.a(stimer.o)
                                                  contiki-cc2538dk.a(uip-ds6-route.o)
                                                  contiki-cc2538dk.a(uip-ds6-nbr.o)
                                                  contiki-cc2538dk.a(uip-ds6.o)
                                                  contiki-cc2538dk.a(er-coap-13-obse)
stimer_remaining                                  contiki-cc2538dk.a(stimer.o)
                                                  contiki-cc2538dk.a(uip-ds6-nbr.o)
                                                  contiki-cc2538dk.a(uip-ds6.o)
                                                  obj_cc2538dk/webserver.o
stimer_reset                                      contiki-cc2538dk.a(stimer.o)
stimer_restart                                    contiki-cc2538dk.a(stimer.o)
                                                  contiki-cc2538dk.a(er-coap-13-obse)
stimer_set                                        contiki-cc2538dk.a(stimer.o)
                                                  contiki-cc2538dk.a(rpl-icmp6.o)
                                                  contiki-cc2538dk.a(tcpip.o)
                                                  contiki-cc2538dk.a(uip-nd6.o)
                                                  contiki-cc2538dk.a(uip-ds6-route.o)
                                                  contiki-cc2538dk.a(uip-ds6-nbr.o)
                                                  contiki-cc2538dk.a(uip-ds6.o)
                                                  contiki-cc2538dk.a(er-coap-13-obse)
store_nvm_config                                  obj_cc2538dk/nvm-config.o
                                                  contiki-cc2538dk.a(rpl-dag.o)
                                                  obj_cc2538dk/webserver.o
strchr                                            /home/user/CodeSourcery/Sourcery_G++_Lite/bin/../lib/gcc/arm-none-eabi/4.3.2/../../../../arm-none-eabi/lib/thumb2/libc.a(lib_a-strchr.o)
                                                  /home/user/CodeSourcery/Sourcery_G++_Lite/bin/../lib/gcc/arm-none-eabi/4.3.2/../../../../arm-none-eabi/lib/thumb2/libc.a(lib_a-strstr.o)
                                                  /home/user/CodeSourcery/Sourcery_G++_Lite/bin/../lib/gcc/arm-none-eabi/4.3.2/../../../../arm-none-eabi/lib/thumb2/libc.a(lib_a-index.o)
                                                  contiki-cc2538dk.a(er-coap-13-engi)
                                                  contiki-cc2538dk.a(er-coap-13.o)
strcmp                                            /home/user/CodeSourcery/Sourcery_G++_Lite/bin/../lib/gcc/arm-none-eabi/4.3.2/../../../../arm-none-eabi/lib/thumb2/libc.a(lib_a-strcmp.o)
                                                  contiki-cc2538dk.a(er-coap-13-engi)
                                                  obj_cc2538dk/webserver.o
strcpy                                            /home/user/CodeSourcery/Sourcery_G++_Lite/bin/../lib/gcc/arm-none-eabi/4.3.2/../../../../arm-none-eabi/lib/thumb2/libc.a(lib_a-strcpy.o)
                                                  obj_cc2538dk/udp-client.o
strlen                                            /home/user/CodeSourcery/Sourcery_G++_Lite/bin/../lib/gcc/arm-none-eabi/4.3.2/../../../../arm-none-eabi/lib/thumb2/libc.a(lib_a-strlen.o)
                                                  contiki-cc2538dk.a(sensors.o)
                                                  contiki-cc2538dk.a(erbium.o)
                                                  contiki-cc2538dk.a(er-coap-13-obse)
                                                  contiki-cc2538dk.a(er-coap-13-engi)
                                                  contiki-cc2538dk.a(er-coap-13.o)
                                                  obj_cc2538dk/udp-client.o
                                                  obj_cc2538dk/udp-server.o
                                                  obj_cc2538dk/httpd-simple.o
                                                  obj_cc2538dk/webserver.o
strncmp                                           /home/user/CodeSourcery/Sourcery_G++_Lite/bin/../lib/gcc/arm-none-eabi/4.3.2/../../../../arm-none-eabi/lib/thumb2/libc.a(lib_a-strncmp.o)
                                                  contiki-cc2538dk.a(sensors.o)
                                                  contiki-cc2538dk.a(erbium.o)
                                                  contiki-cc2538dk.a(er-coap-13.o)
                                                  obj_cc2538dk/httpd-simple.o
                                                  obj_cc2538dk/webserver.o
strncpy                                           /home/user/CodeSourcery/Sourcery_G++_Lite/bin/../lib/gcc/arm-none-eabi/4.3.2/../../../../arm-none-eabi/lib/thumb2/libc.a(lib_a-strncpy.o)
                                                  obj_cc2538dk/httpd-simple.o
strstr                                            /home/user/CodeSourcery/Sourcery_G++_Lite/bin/../lib/gcc/arm-none-eabi/4.3.2/../../../../arm-none-eabi/lib/thumb2/libc.a(lib_a-strstr.o)
                                                  contiki-cc2538dk.a(er-coap-13-engi)
strtol                                            /home/user/CodeSourcery/Sourcery_G++_Lite/bin/../lib/gcc/arm-none-eabi/4.3.2/../../../../arm-none-eabi/lib/thumb2/libc.a(lib_a-strtol.o)
                                                  /home/user/CodeSourcery/Sourcery_G++_Lite/bin/../lib/gcc/arm-none-eabi/4.3.2/../../../../arm-none-eabi/lib/thumb2/libc.a(lib_a-atoi.o)
sys_ctrl_init                                     contiki-cc2538dk.a(sys-ctrl.o)
                                                  contiki-cc2538dk.a(contiki-main.o)
sys_ctrl_reset                                    contiki-cc2538dk.a(sys-ctrl.o)
tcp_attach                                        contiki-cc2538dk.a(tcpip.o)
                                                  obj_cc2538dk/httpd-simple.o
tcp_connect                                       contiki-cc2538dk.a(tcpip.o)
tcp_listen                                        contiki-cc2538dk.a(tcpip.o)
                                                  obj_cc2538dk/httpd-simple.o
tcp_unlisten                                      contiki-cc2538dk.a(tcpip.o)
tcpip_event                                       contiki-cc2538dk.a(tcpip.o)
                                                  contiki-cc2538dk.a(er-coap-13-engi)
                                                  obj_cc2538dk/udp-client.o
                                                  obj_cc2538dk/udp-server.o
                                                  obj_cc2538dk/webserver.o
tcpip_get_inputfunc                               contiki-cc2538dk.a(tcpip.o)
                                                  obj_cc2538dk/packet-filter.o
tcpip_get_outputfunc                              contiki-cc2538dk.a(tcpip.o)
                                                  obj_cc2538dk/packet-filter.o
tcpip_icmp6_call                                  contiki-cc2538dk.a(tcpip.o)
                                                  contiki-cc2538dk.a(uip6.o)
tcpip_icmp6_event                                 contiki-cc2538dk.a(tcpip.o)
tcpip_input                                       contiki-cc2538dk.a(tcpip.o)
                                                  contiki-cc2538dk.a(sicslowpan.o)
tcpip_inputfunc                                   contiki-cc2538dk.a(tcpip.o)
tcpip_ipv6_output                                 contiki-cc2538dk.a(tcpip.o)
                                                  contiki-cc2538dk.a(uip-udp-packet.)
                                                  contiki-cc2538dk.a(uip-icmp6.o)
tcpip_output                                      contiki-cc2538dk.a(tcpip.o)
tcpip_poll_tcp                                    contiki-cc2538dk.a(tcpip.o)
tcpip_poll_udp                                    contiki-cc2538dk.a(tcpip.o)
tcpip_process                                     contiki-cc2538dk.a(tcpip.o)
                                                  contiki-cc2538dk.a(contiki-main.o)
                                                  cetic-6lbr.co
tcpip_set_inputfunc                               contiki-cc2538dk.a(tcpip.o)
                                                  obj_cc2538dk/packet-filter.o
tcpip_set_outputfunc                              contiki-cc2538dk.a(tcpip.o)
                                                  contiki-cc2538dk.a(sicslowpan.o)
                                                  obj_cc2538dk/packet-filter.o
tcpip_uipcall                                     contiki-cc2538dk.a(tcpip.o)
                                                  contiki-cc2538dk.a(uip6.o)
timer_expired                                     contiki-cc2538dk.a(timer.o)
                                                  contiki-cc2538dk.a(uip-ds6.o)
                                                  contiki-cc2538dk.a(sicslowpan.o)
                                                  contiki-cc2538dk.a(etimer.o)
                                                  contiki-cc2538dk.a(button-sensor.o)
                                                  obj_cc2538dk/httpd-simple.o
timer_remaining                                   contiki-cc2538dk.a(timer.o)
timer_reset                                       contiki-cc2538dk.a(timer.o)
                                                  contiki-cc2538dk.a(etimer.o)
timer_restart                                     contiki-cc2538dk.a(timer.o)
                                                  contiki-cc2538dk.a(etimer.o)
                                                  obj_cc2538dk/httpd-simple.o
timer_set                                         contiki-cc2538dk.a(timer.o)
                                                  contiki-cc2538dk.a(uip-ds6.o)
                                                  contiki-cc2538dk.a(sicslowpan.o)
                                                  contiki-cc2538dk.a(etimer.o)
                                                  contiki-cc2538dk.a(button-sensor.o)
                                                  obj_cc2538dk/httpd-simple.o
uart0_isr                                         contiki-cc2538dk.a(uart.o)
                                                  obj_cc2538dk/startup-gcc.o
uart1_isr                                         contiki-cc2538dk.a(uart.o)
                                                  obj_cc2538dk/startup-gcc.o
uart_init                                         contiki-cc2538dk.a(uart.o)
                                                  contiki-cc2538dk.a(contiki-main.o)
uart_isr                                          contiki-cc2538dk.a(uart.o)
uart_set_input                                    contiki-cc2538dk.a(uart.o)
                                                  contiki-cc2538dk.a(contiki-main.o)
uart_write_byte                                   contiki-cc2538dk.a(uart.o)
                                                  contiki-cc2538dk.a(dbg.o)
udma_channel_disable                              contiki-cc2538dk.a(udma.o)
udma_channel_enable                               contiki-cc2538dk.a(udma.o)
                                                  contiki-cc2538dk.a(cc2538-rf.o)
udma_channel_get_mode                             contiki-cc2538dk.a(udma.o)
                                                  contiki-cc2538dk.a(cc2538-rf.o)
udma_channel_mask_clr                             contiki-cc2538dk.a(udma.o)
udma_channel_mask_set                             contiki-cc2538dk.a(udma.o)
                                                  contiki-cc2538dk.a(cc2538-rf.o)
udma_channel_prio_set_default                     contiki-cc2538dk.a(udma.o)
udma_channel_prio_set_high                        contiki-cc2538dk.a(udma.o)
udma_channel_sw_request                           contiki-cc2538dk.a(udma.o)
                                                  contiki-cc2538dk.a(cc2538-rf.o)
udma_channel_use_alternate                        contiki-cc2538dk.a(udma.o)
udma_channel_use_burst                            contiki-cc2538dk.a(udma.o)
udma_channel_use_primary                          contiki-cc2538dk.a(udma.o)
udma_channel_use_single                           contiki-cc2538dk.a(udma.o)
udma_err_isr                                      contiki-cc2538dk.a(udma.o)
                                                  obj_cc2538dk/startup-gcc.o
udma_init                                         contiki-cc2538dk.a(udma.o)
                                                  contiki-cc2538dk.a(contiki-main.o)
udma_isr                                          contiki-cc2538dk.a(udma.o)
                                                  obj_cc2538dk/startup-gcc.o
udma_set_channel_assignment                       contiki-cc2538dk.a(udma.o)
udma_set_channel_control_word                     contiki-cc2538dk.a(udma.o)
                                                  contiki-cc2538dk.a(cc2538-rf.o)
udma_set_channel_dst                              contiki-cc2538dk.a(udma.o)
                                                  contiki-cc2538dk.a(cc2538-rf.o)
udma_set_channel_src                              contiki-cc2538dk.a(udma.o)
                                                  contiki-cc2538dk.a(cc2538-rf.o)
udp_attach                                        contiki-cc2538dk.a(tcpip.o)
udp_broadcast_new                                 contiki-cc2538dk.a(tcpip.o)
udp_client_process                                obj_cc2538dk/udp-client.o
                                                  cetic-6lbr.co
udp_client_run                                    obj_cc2538dk/udp-client.o
udp_interval                                      obj_cc2538dk/udp-client.o
udp_new                                           contiki-cc2538dk.a(tcpip.o)
                                                  contiki-cc2538dk.a(er-coap-13-udp.)
                                                  obj_cc2538dk/udp-client.o
                                                  obj_cc2538dk/udp-server.o
udp_server_process                                obj_cc2538dk/udp-server.o
                                                  cetic-6lbr.co
uip_acc32                                         contiki-cc2538dk.a(uip6.o)
uip_add32                                         contiki-cc2538dk.a(uip6.o)
uip_aligned_buf                                   contiki-cc2538dk.a(rpl-icmp6.o)
                                                  contiki-cc2538dk.a(rpl-ext-header.)
                                                  contiki-cc2538dk.a(uip-udp-packet.)
                                                  contiki-cc2538dk.a(tcpip.o)
                                                  contiki-cc2538dk.a(uip-nd6.o)
                                                  contiki-cc2538dk.a(uip-icmp6.o)
                                                  contiki-cc2538dk.a(uip6.o)
                                                  contiki-cc2538dk.a(sicslowpan.o)
                                                  contiki-cc2538dk.a(er-coap-13-obse)
                                                  contiki-cc2538dk.a(er-coap-13-engi)
                                                  obj_cc2538dk/enc28j60-drv.o
                                                  obj_cc2538dk/sicslow-ethernet.o
                                                  obj_cc2538dk/packet-filter.o
                                                  obj_cc2538dk/udp-server.o
uip_appdata                                       contiki-cc2538dk.a(psock.o)
                                                  contiki-cc2538dk.a(uip6.o)
                                                  contiki-cc2538dk.a(er-coap-13-engi)
                                                  obj_cc2538dk/udp-client.o
                                                  obj_cc2538dk/udp-server.o
uip_chksum                                        contiki-cc2538dk.a(uip6.o)
uip_conn                                          contiki-cc2538dk.a(tcpip.o)
                                                  contiki-cc2538dk.a(psock.o)
                                                  contiki-cc2538dk.a(uip6.o)
                                                  obj_cc2538dk/httpd-simple.o
uip_connect                                       contiki-cc2538dk.a(uip6.o)
                                                  contiki-cc2538dk.a(tcpip.o)
uip_conns                                         contiki-cc2538dk.a(tcpip.o)
                                                  contiki-cc2538dk.a(uip6.o)
uip_debug_ipaddr_print                            contiki-cc2538dk.a(uip-debug.o)
                                                  contiki-cc2538dk.a(uip-ds6-route.o)
                                                  cetic-6lbr.co
uip_debug_lladdr_print                            contiki-cc2538dk.a(uip-debug.o)
uip_ds6_aaddr_add                                 contiki-cc2538dk.a(uip-ds6.o)
uip_ds6_aaddr_lookup                              contiki-cc2538dk.a(uip-ds6.o)
uip_ds6_aaddr_rm                                  contiki-cc2538dk.a(uip-ds6.o)
uip_ds6_addr_add                                  contiki-cc2538dk.a(uip-ds6.o)
                                                  contiki-cc2538dk.a(rpl-dag.o)
                                                  cetic-6lbr.co
uip_ds6_addr_lookup                               contiki-cc2538dk.a(uip-ds6.o)
                                                  contiki-cc2538dk.a(rpl-dag.o)
                                                  contiki-cc2538dk.a(tcpip.o)
                                                  contiki-cc2538dk.a(uip-nd6.o)
                                                  contiki-cc2538dk.a(uip6.o)
                                                  obj_cc2538dk/packet-filter.o
uip_ds6_addr_rm                                   contiki-cc2538dk.a(uip-ds6.o)
                                                  contiki-cc2538dk.a(rpl-dag.o)
                                                  cetic-6lbr.co
uip_ds6_addr_size                                 contiki-cc2538dk.a(uip-ds6.o)
uip_ds6_compute_reachable_time                    contiki-cc2538dk.a(uip-ds6.o)
uip_ds6_dad                                       contiki-cc2538dk.a(uip-ds6.o)
uip_ds6_dad_failed                                contiki-cc2538dk.a(uip-ds6.o)
                                                  contiki-cc2538dk.a(uip-nd6.o)
uip_ds6_defrt_add                                 contiki-cc2538dk.a(uip-ds6-route.o)
                                                  contiki-cc2538dk.a(rpl-dag.o)
                                                  cetic-6lbr.co
uip_ds6_defrt_choose                              contiki-cc2538dk.a(uip-ds6-route.o)
                                                  contiki-cc2538dk.a(tcpip.o)
uip_ds6_defrt_list_head                           contiki-cc2538dk.a(uip-ds6-route.o)
                                                  obj_cc2538dk/webserver.o
uip_ds6_defrt_lookup                              contiki-cc2538dk.a(uip-ds6-route.o)
                                                  contiki-cc2538dk.a(uip-nd6.o)
                                                  contiki-cc2538dk.a(uip-ds6-nbr.o)
uip_ds6_defrt_periodic                            contiki-cc2538dk.a(uip-ds6-route.o)
                                                  contiki-cc2538dk.a(uip-ds6.o)
uip_ds6_defrt_rm                                  contiki-cc2538dk.a(uip-ds6-route.o)
                                                  contiki-cc2538dk.a(rpl-dag.o)
                                                  contiki-cc2538dk.a(uip-nd6.o)
                                                  contiki-cc2538dk.a(uip-ds6-nbr.o)
uip_ds6_get_global                                contiki-cc2538dk.a(uip-ds6.o)
                                                  obj_cc2538dk/udp-client.o
uip_ds6_get_least_lifetime_neighbor               contiki-cc2538dk.a(uip-ds6-nbr.o)
uip_ds6_get_link_local                            contiki-cc2538dk.a(uip-ds6.o)
                                                  contiki-cc2538dk.a(rpl-timers.o)
                                                  cetic-6lbr.co
uip_ds6_if                                        contiki-cc2538dk.a(rpl-icmp6.o)
                                                  contiki-cc2538dk.a(tcpip.o)
                                                  contiki-cc2538dk.a(uip-nd6.o)
                                                  contiki-cc2538dk.a(uip-icmp6.o)
                                                  contiki-cc2538dk.a(uip-ds6-nbr.o)
                                                  contiki-cc2538dk.a(uip-ds6.o)
                                                  contiki-cc2538dk.a(uip6.o)
                                                  obj_cc2538dk/webserver.o
uip_ds6_init                                      contiki-cc2538dk.a(uip-ds6.o)
                                                  contiki-cc2538dk.a(uip6.o)
uip_ds6_is_addr_onlink                            contiki-cc2538dk.a(uip-ds6.o)
                                                  contiki-cc2538dk.a(tcpip.o)
                                                  contiki-cc2538dk.a(uip6.o)
uip_ds6_link_neighbor_callback                    contiki-cc2538dk.a(uip-ds6-nbr.o)
                                                  contiki-cc2538dk.a(sicslowpan.o)
uip_ds6_list_loop                                 contiki-cc2538dk.a(uip-ds6.o)
                                                  obj_cc2538dk/rio.o
                                                  obj_cc2538dk/node-info.o
uip_ds6_maddr_add                                 contiki-cc2538dk.a(uip-ds6.o)
                                                  contiki-cc2538dk.a(rpl.o)
uip_ds6_maddr_lookup                              contiki-cc2538dk.a(uip-ds6.o)
                                                  contiki-cc2538dk.a(uip6.o)
uip_ds6_maddr_rm                                  contiki-cc2538dk.a(uip-ds6.o)
uip_ds6_nbr_add                                   contiki-cc2538dk.a(uip-ds6-nbr.o)
                                                  contiki-cc2538dk.a(rpl-icmp6.o)
                                                  contiki-cc2538dk.a(tcpip.o)
                                                  contiki-cc2538dk.a(uip-nd6.o)
uip_ds6_nbr_get_ipaddr                            contiki-cc2538dk.a(uip-ds6-nbr.o)
uip_ds6_nbr_get_ll                                contiki-cc2538dk.a(uip-ds6-nbr.o)
                                                  contiki-cc2538dk.a(rpl-dag.o)
                                                  contiki-cc2538dk.a(tcpip.o)
                                                  contiki-cc2538dk.a(uip-nd6.o)
                                                  obj_cc2538dk/webserver.o
uip_ds6_nbr_ipaddr_from_lladdr                    contiki-cc2538dk.a(uip-ds6-nbr.o)
                                                  contiki-cc2538dk.a(rpl-dag.o)
                                                  contiki-cc2538dk.a(uip-ds6-route.o)
uip_ds6_nbr_ll_lookup                             contiki-cc2538dk.a(uip-ds6-nbr.o)
uip_ds6_nbr_lladdr_from_ipaddr                    contiki-cc2538dk.a(uip-ds6-nbr.o)
                                                  contiki-cc2538dk.a(rpl-dag.o)
                                                  contiki-cc2538dk.a(uip-ds6-route.o)
uip_ds6_nbr_lookup                                contiki-cc2538dk.a(uip-ds6-nbr.o)
                                                  contiki-cc2538dk.a(rpl-icmp6.o)
                                                  contiki-cc2538dk.a(rpl-dag.o)
                                                  contiki-cc2538dk.a(tcpip.o)
                                                  contiki-cc2538dk.a(uip-nd6.o)
                                                  contiki-cc2538dk.a(uip-ds6-route.o)
                                                  obj_cc2538dk/webserver.o
uip_ds6_nbr_num                                   contiki-cc2538dk.a(uip-ds6-nbr.o)
uip_ds6_nbr_rm                                    contiki-cc2538dk.a(uip-ds6-nbr.o)
                                                  contiki-cc2538dk.a(uip-nd6.o)
                                                  obj_cc2538dk/webserver.o
uip_ds6_neighbor_periodic                         contiki-cc2538dk.a(uip-ds6-nbr.o)
                                                  contiki-cc2538dk.a(uip-ds6.o)
uip_ds6_neighbors_init                            contiki-cc2538dk.a(uip-ds6-nbr.o)
                                                  contiki-cc2538dk.a(uip-ds6.o)
uip_ds6_netif_addr_list_offset                    contiki-cc2538dk.a(uip-ds6.o)
uip_ds6_notification_add                          contiki-cc2538dk.a(uip-ds6-route.o)
                                                  obj_cc2538dk/node-info.o
uip_ds6_notification_rm                           contiki-cc2538dk.a(uip-ds6-route.o)
uip_ds6_periodic                                  contiki-cc2538dk.a(uip-ds6.o)
                                                  contiki-cc2538dk.a(tcpip.o)
uip_ds6_prefix_add                                contiki-cc2538dk.a(uip-ds6.o)
                                                  cetic-6lbr.co
uip_ds6_prefix_list                               contiki-cc2538dk.a(uip-nd6.o)
                                                  contiki-cc2538dk.a(uip-ds6.o)
                                                  obj_cc2538dk/webserver.o
uip_ds6_prefix_lookup                             contiki-cc2538dk.a(uip-ds6.o)
uip_ds6_prefix_rm                                 contiki-cc2538dk.a(uip-ds6.o)
uip_ds6_route_add                                 contiki-cc2538dk.a(uip-ds6-route.o)
                                                  contiki-cc2538dk.a(rpl.o)
                                                  obj_cc2538dk/rio.o
uip_ds6_route_head                                contiki-cc2538dk.a(uip-ds6-route.o)
                                                  contiki-cc2538dk.a(rpl.o)
                                                  obj_cc2538dk/webserver.o
uip_ds6_route_info_add                            obj_cc2538dk/rio.o
                                                  cetic-6lbr.co
uip_ds6_route_info_callback                       obj_cc2538dk/rio.o
uip_ds6_route_info_list                           contiki-cc2538dk.a(uip-nd6.o)
                                                  obj_cc2538dk/rio.o
                                                  obj_cc2538dk/webserver.o
uip_ds6_route_info_lookup                         obj_cc2538dk/rio.o
uip_ds6_route_info_rm                             obj_cc2538dk/rio.o
uip_ds6_route_init                                contiki-cc2538dk.a(uip-ds6-route.o)
                                                  contiki-cc2538dk.a(uip-ds6.o)
uip_ds6_route_lookup                              contiki-cc2538dk.a(uip-ds6-route.o)
                                                  contiki-cc2538dk.a(rpl-icmp6.o)
                                                  contiki-cc2538dk.a(rpl-ext-header.)
                                                  contiki-cc2538dk.a(rpl.o)
                                                  contiki-cc2538dk.a(tcpip.o)
                                                  obj_cc2538dk/rio.o
                                                  obj_cc2538dk/webserver.o
uip_ds6_route_next                                contiki-cc2538dk.a(uip-ds6-route.o)
                                                  contiki-cc2538dk.a(rpl.o)
                                                  obj_cc2538dk/webserver.o
uip_ds6_route_nexthop                             contiki-cc2538dk.a(uip-ds6-route.o)
                                                  contiki-cc2538dk.a(rpl-icmp6.o)
                                                  contiki-cc2538dk.a(rpl.o)
                                                  contiki-cc2538dk.a(tcpip.o)
                                                  obj_cc2538dk/webserver.o
uip_ds6_route_num_routes                          contiki-cc2538dk.a(uip-ds6-route.o)
uip_ds6_route_rm                                  contiki-cc2538dk.a(uip-ds6-route.o)
                                                  contiki-cc2538dk.a(rpl-ext-header.)
                                                  contiki-cc2538dk.a(rpl.o)
                                                  contiki-cc2538dk.a(tcpip.o)
                                                  obj_cc2538dk/rio.o
                                                  obj_cc2538dk/webserver.o
uip_ds6_route_rm_by_nexthop                       contiki-cc2538dk.a(uip-ds6-route.o)
uip_ds6_select_src                                contiki-cc2538dk.a(uip-ds6.o)
                                                  contiki-cc2538dk.a(uip-nd6.o)
                                                  contiki-cc2538dk.a(uip-icmp6.o)
                                                  contiki-cc2538dk.a(uip6.o)
uip_ds6_send_ra_periodic                          contiki-cc2538dk.a(uip-ds6.o)
uip_ds6_send_ra_sollicited                        contiki-cc2538dk.a(uip-ds6.o)
                                                  contiki-cc2538dk.a(uip-nd6.o)
uip_ds6_set_addr_iid                              contiki-cc2538dk.a(uip-ds6.o)
                                                  contiki-cc2538dk.a(rpl-dag.o)
                                                  contiki-cc2538dk.a(rpl.o)
                                                  contiki-cc2538dk.a(sicslowpan.o)
                                                  cetic-6lbr.co
uip_ds6_timer_periodic                            contiki-cc2538dk.a(tcpip.o)
                                                  contiki-cc2538dk.a(uip-ds6.o)
uip_ds6_timer_ra                                  contiki-cc2538dk.a(uip-ds6.o)
uip_ext_bitmap                                    contiki-cc2538dk.a(uip6.o)
uip_ext_len                                       contiki-cc2538dk.a(uip6.o)
                                                  contiki-cc2538dk.a(rpl-icmp6.o)
                                                  contiki-cc2538dk.a(rpl-ext-header.)
                                                  contiki-cc2538dk.a(tcpip.o)
                                                  contiki-cc2538dk.a(uip-nd6.o)
                                                  contiki-cc2538dk.a(uip-icmp6.o)
                                                  obj_cc2538dk/packet-filter.o
uip_ext_opt_offset                                contiki-cc2538dk.a(uip6.o)
uip_flags                                         contiki-cc2538dk.a(tcpip.o)
                                                  contiki-cc2538dk.a(psock.o)
                                                  contiki-cc2538dk.a(uip6.o)
                                                  contiki-cc2538dk.a(er-coap-13-engi)
                                                  obj_cc2538dk/udp-client.o
                                                  obj_cc2538dk/udp-server.o
                                                  obj_cc2538dk/httpd-simple.o
uip_htonl                                         contiki-cc2538dk.a(uip6.o)
                                                  contiki-cc2538dk.a(uip-nd6.o)
                                                  contiki-cc2538dk.a(uip-icmp6.o)
                                                  obj_cc2538dk/rio.o
uip_htons                                         contiki-cc2538dk.a(uip6.o)
                                                  contiki-cc2538dk.a(uip-nd6.o)
                                                  obj_cc2538dk/packet-filter.o
uip_icmp6_conns                                   contiki-cc2538dk.a(tcpip.o)
                                                  contiki-cc2538dk.a(uip6.o)
uip_icmp6_echo_reply_callback_add                 contiki-cc2538dk.a(uip-icmp6.o)
uip_icmp6_echo_reply_callback_rm                  contiki-cc2538dk.a(uip-icmp6.o)
uip_icmp6_error_output                            contiki-cc2538dk.a(uip-icmp6.o)
                                                  contiki-cc2538dk.a(uip6.o)
uip_icmp6_init                                    contiki-cc2538dk.a(uip-icmp6.o)
                                                  contiki-cc2538dk.a(uip6.o)
uip_icmp6_input                                   contiki-cc2538dk.a(uip-icmp6.o)
                                                  contiki-cc2538dk.a(uip6.o)
uip_icmp6_register_input_handler                  contiki-cc2538dk.a(uip-icmp6.o)
                                                  contiki-cc2538dk.a(rpl-icmp6.o)
                                                  contiki-cc2538dk.a(uip-nd6.o)
uip_icmp6_send                                    contiki-cc2538dk.a(uip-icmp6.o)
                                                  contiki-cc2538dk.a(rpl-icmp6.o)
uip_icmp6chksum                                   contiki-cc2538dk.a(uip6.o)
                                                  contiki-cc2538dk.a(uip-nd6.o)
                                                  contiki-cc2538dk.a(uip-icmp6.o)
                                                  obj_cc2538dk/sicslow-ethernet.o
uip_init                                          contiki-cc2538dk.a(uip6.o)
                                                  contiki-cc2538dk.a(tcpip.o)
uip_ipchksum                                      contiki-cc2538dk.a(uip6.o)
uip_len                                           contiki-cc2538dk.a(rpl-icmp6.o)
                                                  contiki-cc2538dk.a(rpl-ext-header.)
                                                  contiki-cc2538dk.a(tcpip.o)
                                                  contiki-cc2538dk.a(psock.o)
                                                  contiki-cc2538dk.a(uip-nd6.o)
                                                  contiki-cc2538dk.a(uip-icmp6.o)
                                                  contiki-cc2538dk.a(uip-ds6-nbr.o)
                                                  contiki-cc2538dk.a(uip-ds6.o)
                                                  contiki-cc2538dk.a(uip6.o)
                                                  contiki-cc2538dk.a(sicslowpan.o)
                                                  contiki-cc2538dk.a(er-coap-13-engi)
                                                  obj_cc2538dk/enc28j60-drv.o
                                                  obj_cc2538dk/sicslow-ethernet.o
                                                  obj_cc2538dk/packet-filter.o
                                                  obj_cc2538dk/udp-client.o
                                                  obj_cc2538dk/udp-server.o
                                                  cetic-6lbr.co
uip_listen                                        contiki-cc2538dk.a(uip6.o)
                                                  contiki-cc2538dk.a(tcpip.o)
uip_listenports                                   contiki-cc2538dk.a(uip6.o)
uip_lladdr                                        contiki-cc2538dk.a(rpl-dag.o)
                                                  contiki-cc2538dk.a(uip-nd6.o)
                                                  contiki-cc2538dk.a(uip-ds6.o)
                                                  contiki-cc2538dk.a(uip6.o)
                                                  contiki-cc2538dk.a(sicslowpan.o)
                                                  contiki-cc2538dk.a(contiki-main.o)
                                                  obj_cc2538dk/sicslow-ethernet.o
                                                  obj_cc2538dk/webserver.o
                                                  cetic-6lbr.co
uip_nd6_init                                      contiki-cc2538dk.a(uip-nd6.o)
                                                  contiki-cc2538dk.a(uip6.o)
uip_nd6_ns_output                                 contiki-cc2538dk.a(uip-nd6.o)
                                                  contiki-cc2538dk.a(tcpip.o)
                                                  contiki-cc2538dk.a(uip-ds6-nbr.o)
                                                  contiki-cc2538dk.a(uip-ds6.o)
uip_nd6_ra_output                                 contiki-cc2538dk.a(uip-nd6.o)
                                                  contiki-cc2538dk.a(uip-ds6.o)
uip_next_hdr                                      contiki-cc2538dk.a(uip6.o)
uip_process                                       contiki-cc2538dk.a(uip6.o)
                                                  contiki-cc2538dk.a(uip-udp-packet.)
                                                  contiki-cc2538dk.a(tcpip.o)
uip_sappdata                                      contiki-cc2538dk.a(uip6.o)
uip_send                                          contiki-cc2538dk.a(uip6.o)
                                                  contiki-cc2538dk.a(psock.o)
uip_slen                                          contiki-cc2538dk.a(uip-udp-packet.)
                                                  contiki-cc2538dk.a(uip6.o)
uip_tcpchksum                                     contiki-cc2538dk.a(uip6.o)
uip_udp_conn                                      contiki-cc2538dk.a(uip-udp-packet.)
                                                  contiki-cc2538dk.a(tcpip.o)
                                                  contiki-cc2538dk.a(uip6.o)
uip_udp_conns                                     contiki-cc2538dk.a(tcpip.o)
                                                  contiki-cc2538dk.a(uip6.o)
uip_udp_new                                       contiki-cc2538dk.a(uip6.o)
                                                  contiki-cc2538dk.a(tcpip.o)
uip_udp_packet_send                               contiki-cc2538dk.a(uip-udp-packet.)
                                                  contiki-cc2538dk.a(er-coap-13-udp.)
                                                  obj_cc2538dk/udp-client.o
                                                  obj_cc2538dk/udp-server.o
uip_udp_packet_sendto                             contiki-cc2538dk.a(uip-udp-packet.)
uip_udpchksum                                     contiki-cc2538dk.a(uip6.o)
uip_unlisten                                      contiki-cc2538dk.a(uip6.o)
                                                  contiki-cc2538dk.a(tcpip.o)
uiplib_ip4addrconv                                contiki-cc2538dk.a(uiplib.o)
uiplib_ip6addrconv                                contiki-cc2538dk.a(uiplib.o)
                                                  obj_cc2538dk/node-info.o
                                                  obj_cc2538dk/webserver.o
unc_ctxconf                                       contiki-cc2538dk.a(sicslowpan.o)
unc_llconf                                        contiki-cc2538dk.a(sicslowpan.o)
unc_mxconf                                        contiki-cc2538dk.a(sicslowpan.o)
update_config                                     obj_cc2538dk/webserver.o
urlconv_init                                      obj_cc2538dk/httpd-simple.o
use_user_dest_addr                                obj_cc2538dk/udp-client.o
user_dest_addr                                    obj_cc2538dk/udp-client.o
user_dest_port                                    obj_cc2538dk/udp-client.o
vectors                                           obj_cc2538dk/startup-gcc.o
vsnprintf                                         contiki-cc2538dk.a(dbg-snprintf.o)
                                                  obj_cc2538dk/webserver.o
watchdog_init                                     contiki-cc2538dk.a(watchdog.o)
                                                  contiki-cc2538dk.a(contiki-main.o)
watchdog_periodic                                 contiki-cc2538dk.a(watchdog.o)
                                                  contiki-cc2538dk.a(contikimac.o)
                                                  contiki-cc2538dk.a(sicslowpan.o)
                                                  contiki-cc2538dk.a(contiki-main.o)
watchdog_reboot                                   contiki-cc2538dk.a(watchdog.o)
                                                  cetic-6lbr.co
watchdog_start                                    contiki-cc2538dk.a(watchdog.o)
                                                  contiki-cc2538dk.a(contiki-main.o)
watchdog_stop                                     contiki-cc2538dk.a(watchdog.o)
webserver_nogui_process                           obj_cc2538dk/webserver.o
                                                  cetic-6lbr.co
well_known_core_handler                           contiki-cc2538dk.a(er-coap-13-engi)
wireless_output                                   obj_cc2538dk/packet-filter.o
wsn_ip_addr                                       cetic-6lbr.co
wsn_ip_local_addr                                 cetic-6lbr.co
wsn_mac_addr                                      obj_cc2538dk/cc2538dk-init.o
                                                  obj_cc2538dk/packet-filter.o
                                                  cetic-6lbr.co
wsn_net_prefix                                    contiki-cc2538dk.a(tcpip.o)
                                                  cetic-6lbr.co
wsn_net_prefix_len                                cetic-6lbr.co
